ARM GAS  C:\Users\seths\AppData\Local\Temp\ccu8EsPT.s 			page 1


   1              		.syntax unified
   2              		.cpu cortex-m0plus
   3              		.fpu softvfp
   4              		.eabi_attribute 20, 1
   5              		.eabi_attribute 21, 1
   6              		.eabi_attribute 23, 3
   7              		.eabi_attribute 24, 1
   8              		.eabi_attribute 25, 1
   9              		.eabi_attribute 26, 1
  10              		.eabi_attribute 30, 1
  11              		.eabi_attribute 34, 0
  12              		.eabi_attribute 18, 4
  13              		.thumb
  14              		.syntax unified
  15              		.file	"sI2C.c"
  16              		.text
  17              	.Ltext0:
  18              		.cfi_sections	.debug_frame
  19              		.section	.text.sI2C_Interrupt,"ax",%progbits
  20              		.align	2
  21              		.code	16
  22              		.thumb_func
  23              		.type	sI2C_Interrupt, %function
  24              	sI2C_Interrupt:
  25              	.LFB163:
  26              		.file 1 "Generated_Source\\PSoC6\\sI2C.h"
   1:Generated_Source\PSoC6/sI2C.h **** /***************************************************************************//**
   2:Generated_Source\PSoC6/sI2C.h **** * \file sI2C.c
   3:Generated_Source\PSoC6/sI2C.h **** * \version 2.0
   4:Generated_Source\PSoC6/sI2C.h **** *
   5:Generated_Source\PSoC6/sI2C.h **** *  This file provides constants and parameter values for the I2C component.
   6:Generated_Source\PSoC6/sI2C.h **** *
   7:Generated_Source\PSoC6/sI2C.h **** ********************************************************************************
   8:Generated_Source\PSoC6/sI2C.h **** * \copyright
   9:Generated_Source\PSoC6/sI2C.h **** * Copyright 2016-2017, Cypress Semiconductor Corporation. All rights reserved.
  10:Generated_Source\PSoC6/sI2C.h **** * You may use this file only in accordance with the license, terms, conditions,
  11:Generated_Source\PSoC6/sI2C.h **** * disclaimers, and limitations in the end user license agreement accompanying
  12:Generated_Source\PSoC6/sI2C.h **** * the software package with which this file was provided.
  13:Generated_Source\PSoC6/sI2C.h **** *******************************************************************************/
  14:Generated_Source\PSoC6/sI2C.h **** 
  15:Generated_Source\PSoC6/sI2C.h **** #if !defined(sI2C_CY_SCB_I2C_PDL_H)
  16:Generated_Source\PSoC6/sI2C.h **** #define sI2C_CY_SCB_I2C_PDL_H
  17:Generated_Source\PSoC6/sI2C.h **** 
  18:Generated_Source\PSoC6/sI2C.h **** #include "cyfitter.h"
  19:Generated_Source\PSoC6/sI2C.h **** #include "scb/cy_scb_i2c.h"
  20:Generated_Source\PSoC6/sI2C.h **** 
  21:Generated_Source\PSoC6/sI2C.h **** #if defined(__cplusplus)
  22:Generated_Source\PSoC6/sI2C.h **** extern "C" {
  23:Generated_Source\PSoC6/sI2C.h **** #endif
  24:Generated_Source\PSoC6/sI2C.h **** 
  25:Generated_Source\PSoC6/sI2C.h **** /***************************************
  26:Generated_Source\PSoC6/sI2C.h **** *   Initial Parameter Constants
  27:Generated_Source\PSoC6/sI2C.h **** ****************************************/
  28:Generated_Source\PSoC6/sI2C.h **** 
  29:Generated_Source\PSoC6/sI2C.h **** #define sI2C_MODE               (0x1U)
  30:Generated_Source\PSoC6/sI2C.h **** #define sI2C_MODE_SLAVE_MASK    (0x1U)
  31:Generated_Source\PSoC6/sI2C.h **** #define sI2C_MODE_MASTER_MASK   (0x2U)
ARM GAS  C:\Users\seths\AppData\Local\Temp\ccu8EsPT.s 			page 2


  32:Generated_Source\PSoC6/sI2C.h **** 
  33:Generated_Source\PSoC6/sI2C.h **** #define sI2C_ENABLE_SLAVE       (0UL != (sI2C_MODE & sI2C_MODE_SLAVE_MASK))
  34:Generated_Source\PSoC6/sI2C.h **** #define sI2C_ENABLE_MASTER      (0UL != (sI2C_MODE & sI2C_MODE_MASTER_MASK))
  35:Generated_Source\PSoC6/sI2C.h **** #define sI2C_MANUAL_SCL_CONTROL (0U)
  36:Generated_Source\PSoC6/sI2C.h **** 
  37:Generated_Source\PSoC6/sI2C.h **** 
  38:Generated_Source\PSoC6/sI2C.h **** /***************************************
  39:Generated_Source\PSoC6/sI2C.h **** *        Function Prototypes
  40:Generated_Source\PSoC6/sI2C.h **** ***************************************/
  41:Generated_Source\PSoC6/sI2C.h **** /**
  42:Generated_Source\PSoC6/sI2C.h **** * \addtogroup group_general
  43:Generated_Source\PSoC6/sI2C.h **** * @{
  44:Generated_Source\PSoC6/sI2C.h **** */
  45:Generated_Source\PSoC6/sI2C.h **** /* Component only APIs. */
  46:Generated_Source\PSoC6/sI2C.h **** void sI2C_Start(void);
  47:Generated_Source\PSoC6/sI2C.h **** 
  48:Generated_Source\PSoC6/sI2C.h **** /* Basic functions. */
  49:Generated_Source\PSoC6/sI2C.h **** __STATIC_INLINE cy_en_scb_i2c_status_t sI2C_Init(cy_stc_scb_i2c_config_t const *config);
  50:Generated_Source\PSoC6/sI2C.h **** __STATIC_INLINE void sI2C_DeInit (void);
  51:Generated_Source\PSoC6/sI2C.h **** __STATIC_INLINE void sI2C_Enable (void);
  52:Generated_Source\PSoC6/sI2C.h **** __STATIC_INLINE void sI2C_Disable(void);
  53:Generated_Source\PSoC6/sI2C.h **** 
  54:Generated_Source\PSoC6/sI2C.h **** /* Data rate configuration functions. */
  55:Generated_Source\PSoC6/sI2C.h **** __STATIC_INLINE uint32_t sI2C_SetDataRate(uint32_t dataRateHz, uint32_t scbClockHz);
  56:Generated_Source\PSoC6/sI2C.h **** __STATIC_INLINE uint32_t sI2C_GetDataRate(uint32_t scbClockHz);
  57:Generated_Source\PSoC6/sI2C.h **** 
  58:Generated_Source\PSoC6/sI2C.h **** /* Register callbacks. */
  59:Generated_Source\PSoC6/sI2C.h **** __STATIC_INLINE void sI2C_RegisterEventCallback(cy_cb_scb_i2c_handle_events_t callback);
  60:Generated_Source\PSoC6/sI2C.h **** #if (sI2C_ENABLE_SLAVE)
  61:Generated_Source\PSoC6/sI2C.h **** __STATIC_INLINE void sI2C_RegisterAddrCallback (cy_cb_scb_i2c_handle_addr_t callback);
  62:Generated_Source\PSoC6/sI2C.h **** #endif /* (sI2C_ENABLE_SLAVE) */
  63:Generated_Source\PSoC6/sI2C.h **** 
  64:Generated_Source\PSoC6/sI2C.h **** /* Configuration functions. */
  65:Generated_Source\PSoC6/sI2C.h **** #if (sI2C_ENABLE_SLAVE)
  66:Generated_Source\PSoC6/sI2C.h **** __STATIC_INLINE void     sI2C_SlaveSetAddress(uint8_t addr);
  67:Generated_Source\PSoC6/sI2C.h **** __STATIC_INLINE uint32_t sI2C_SlaveGetAddress(void);
  68:Generated_Source\PSoC6/sI2C.h **** __STATIC_INLINE void     sI2C_SlaveSetAddressMask(uint8_t addrMask);
  69:Generated_Source\PSoC6/sI2C.h **** __STATIC_INLINE uint32_t sI2C_SlaveGetAddressMask(void);
  70:Generated_Source\PSoC6/sI2C.h **** #endif /* (sI2C_ENABLE_SLAVE) */
  71:Generated_Source\PSoC6/sI2C.h **** 
  72:Generated_Source\PSoC6/sI2C.h **** #if (sI2C_ENABLE_MASTER)
  73:Generated_Source\PSoC6/sI2C.h **** __STATIC_INLINE void sI2C_MasterSetLowPhaseDutyCycle (uint32_t clockCycles);
  74:Generated_Source\PSoC6/sI2C.h **** __STATIC_INLINE void sI2C_MasterSetHighPhaseDutyCycle(uint32_t clockCycles);
  75:Generated_Source\PSoC6/sI2C.h **** #endif /* (sI2C_ENABLE_MASTER) */
  76:Generated_Source\PSoC6/sI2C.h **** 
  77:Generated_Source\PSoC6/sI2C.h **** /* Bus status. */
  78:Generated_Source\PSoC6/sI2C.h **** __STATIC_INLINE bool     sI2C_IsBusBusy(void);
  79:Generated_Source\PSoC6/sI2C.h **** 
  80:Generated_Source\PSoC6/sI2C.h **** /* Slave functions. */
  81:Generated_Source\PSoC6/sI2C.h **** #if (sI2C_ENABLE_SLAVE)
  82:Generated_Source\PSoC6/sI2C.h **** __STATIC_INLINE uint32_t sI2C_SlaveGetStatus(void);
  83:Generated_Source\PSoC6/sI2C.h **** 
  84:Generated_Source\PSoC6/sI2C.h **** __STATIC_INLINE void     sI2C_SlaveConfigReadBuf(uint8_t *buffer, uint32_t size);
  85:Generated_Source\PSoC6/sI2C.h **** __STATIC_INLINE void     sI2C_SlaveAbortRead(void);
  86:Generated_Source\PSoC6/sI2C.h **** __STATIC_INLINE uint32_t sI2C_SlaveGetReadTransferCount(void);
  87:Generated_Source\PSoC6/sI2C.h **** __STATIC_INLINE uint32_t sI2C_SlaveClearReadStatus(void);
  88:Generated_Source\PSoC6/sI2C.h **** 
ARM GAS  C:\Users\seths\AppData\Local\Temp\ccu8EsPT.s 			page 3


  89:Generated_Source\PSoC6/sI2C.h **** __STATIC_INLINE void     sI2C_SlaveConfigWriteBuf(uint8_t *buffer, uint32_t size);
  90:Generated_Source\PSoC6/sI2C.h **** __STATIC_INLINE void     sI2C_SlaveAbortWrite(void);
  91:Generated_Source\PSoC6/sI2C.h **** __STATIC_INLINE uint32_t sI2C_SlaveGetWriteTransferCount(void);
  92:Generated_Source\PSoC6/sI2C.h **** __STATIC_INLINE uint32_t sI2C_SlaveClearWriteStatus(void);
  93:Generated_Source\PSoC6/sI2C.h **** #endif /* (sI2C_ENABLE_SLAVE) */
  94:Generated_Source\PSoC6/sI2C.h **** 
  95:Generated_Source\PSoC6/sI2C.h **** /* Master interrupt processing functions. */
  96:Generated_Source\PSoC6/sI2C.h **** #if (sI2C_ENABLE_MASTER)
  97:Generated_Source\PSoC6/sI2C.h **** __STATIC_INLINE uint32_t sI2C_MasterGetStatus(void);
  98:Generated_Source\PSoC6/sI2C.h **** 
  99:Generated_Source\PSoC6/sI2C.h **** __STATIC_INLINE cy_en_scb_i2c_status_t sI2C_MasterRead(cy_stc_scb_i2c_master_xfer_config_t *xferCon
 100:Generated_Source\PSoC6/sI2C.h **** __STATIC_INLINE void sI2C_MasterAbortRead(void);
 101:Generated_Source\PSoC6/sI2C.h **** __STATIC_INLINE cy_en_scb_i2c_status_t sI2C_MasterWrite(cy_stc_scb_i2c_master_xfer_config_t *xferCo
 102:Generated_Source\PSoC6/sI2C.h **** __STATIC_INLINE void sI2C_MasterAbortWrite(void);
 103:Generated_Source\PSoC6/sI2C.h **** __STATIC_INLINE uint32_t sI2C_MasterGetTransferCount(void);
 104:Generated_Source\PSoC6/sI2C.h **** 
 105:Generated_Source\PSoC6/sI2C.h **** /* Master manual processing functions. */
 106:Generated_Source\PSoC6/sI2C.h **** __STATIC_INLINE cy_en_scb_i2c_status_t sI2C_MasterSendStart(uint32_t address, cy_en_scb_i2c_directi
 107:Generated_Source\PSoC6/sI2C.h **** __STATIC_INLINE cy_en_scb_i2c_status_t sI2C_MasterSendReStart(uint32_t address, cy_en_scb_i2c_direc
 108:Generated_Source\PSoC6/sI2C.h **** __STATIC_INLINE cy_en_scb_i2c_status_t sI2C_MasterSendStop(uint32_t timeoutMs);
 109:Generated_Source\PSoC6/sI2C.h **** __STATIC_INLINE cy_en_scb_i2c_status_t sI2C_MasterReadByte(cy_en_scb_i2c_command_t ackNack, uint8_t
 110:Generated_Source\PSoC6/sI2C.h **** __STATIC_INLINE cy_en_scb_i2c_status_t sI2C_MasterWriteByte(uint8_t byte, uint32_t timeoutMs);
 111:Generated_Source\PSoC6/sI2C.h **** #endif /* (sI2C_ENABLE_MASTER) */
 112:Generated_Source\PSoC6/sI2C.h **** 
 113:Generated_Source\PSoC6/sI2C.h **** /* Interrupt handler. */
 114:Generated_Source\PSoC6/sI2C.h **** __STATIC_INLINE void sI2C_Interrupt(void);
 115:Generated_Source\PSoC6/sI2C.h **** /** @} group_general */
 116:Generated_Source\PSoC6/sI2C.h **** 
 117:Generated_Source\PSoC6/sI2C.h **** 
 118:Generated_Source\PSoC6/sI2C.h **** /***************************************
 119:Generated_Source\PSoC6/sI2C.h **** *    Variables with External Linkage
 120:Generated_Source\PSoC6/sI2C.h **** ***************************************/
 121:Generated_Source\PSoC6/sI2C.h **** /**
 122:Generated_Source\PSoC6/sI2C.h **** * \addtogroup group_globals
 123:Generated_Source\PSoC6/sI2C.h **** * @{
 124:Generated_Source\PSoC6/sI2C.h **** */
 125:Generated_Source\PSoC6/sI2C.h **** extern uint8_t sI2C_initVar;
 126:Generated_Source\PSoC6/sI2C.h **** extern cy_stc_scb_i2c_config_t const sI2C_config;
 127:Generated_Source\PSoC6/sI2C.h **** extern cy_stc_scb_i2c_context_t sI2C_context;
 128:Generated_Source\PSoC6/sI2C.h **** /** @} group_globals */
 129:Generated_Source\PSoC6/sI2C.h **** 
 130:Generated_Source\PSoC6/sI2C.h **** 
 131:Generated_Source\PSoC6/sI2C.h **** /***************************************
 132:Generated_Source\PSoC6/sI2C.h **** *         Preprocessor Macros
 133:Generated_Source\PSoC6/sI2C.h **** ***************************************/
 134:Generated_Source\PSoC6/sI2C.h **** /**
 135:Generated_Source\PSoC6/sI2C.h **** * \addtogroup group_macros
 136:Generated_Source\PSoC6/sI2C.h **** * @{
 137:Generated_Source\PSoC6/sI2C.h **** */
 138:Generated_Source\PSoC6/sI2C.h **** /** The pointer to the base address of the SCB instance */
 139:Generated_Source\PSoC6/sI2C.h **** #define sI2C_HW     ((CySCB_Type *) sI2C_SCB__HW)
 140:Generated_Source\PSoC6/sI2C.h **** 
 141:Generated_Source\PSoC6/sI2C.h **** /** The desired data rate in Hz */
 142:Generated_Source\PSoC6/sI2C.h **** #define sI2C_DATA_RATE_HZ      (400000U)
 143:Generated_Source\PSoC6/sI2C.h **** 
 144:Generated_Source\PSoC6/sI2C.h **** /** The frequency of the clock used by the Component in Hz */
 145:Generated_Source\PSoC6/sI2C.h **** #define sI2C_CLK_FREQ_HZ       (12500000U)
ARM GAS  C:\Users\seths\AppData\Local\Temp\ccu8EsPT.s 			page 4


 146:Generated_Source\PSoC6/sI2C.h **** 
 147:Generated_Source\PSoC6/sI2C.h **** /** The number of Component clocks used by the master to generate the SCL
 148:Generated_Source\PSoC6/sI2C.h **** * low phase. This number is calculated by GUI based on the selected data rate.
 149:Generated_Source\PSoC6/sI2C.h **** */
 150:Generated_Source\PSoC6/sI2C.h **** #define sI2C_LOW_PHASE_DUTY_CYCLE   (0U)
 151:Generated_Source\PSoC6/sI2C.h **** 
 152:Generated_Source\PSoC6/sI2C.h **** /** The number of Component clocks used by the master to generate the SCL
 153:Generated_Source\PSoC6/sI2C.h **** * high phase. This number is calculated by GUI based on the selected data rate.
 154:Generated_Source\PSoC6/sI2C.h **** */
 155:Generated_Source\PSoC6/sI2C.h **** #define sI2C_HIGH_PHASE_DUTY_CYCLE  (0U)
 156:Generated_Source\PSoC6/sI2C.h **** /** @} group_macros */
 157:Generated_Source\PSoC6/sI2C.h **** 
 158:Generated_Source\PSoC6/sI2C.h **** 
 159:Generated_Source\PSoC6/sI2C.h **** /***************************************
 160:Generated_Source\PSoC6/sI2C.h **** *    In-line Function Implementation
 161:Generated_Source\PSoC6/sI2C.h **** ***************************************/
 162:Generated_Source\PSoC6/sI2C.h **** 
 163:Generated_Source\PSoC6/sI2C.h **** /*******************************************************************************
 164:Generated_Source\PSoC6/sI2C.h **** * Function Name: sI2C_Init
 165:Generated_Source\PSoC6/sI2C.h **** ****************************************************************************//**
 166:Generated_Source\PSoC6/sI2C.h **** *
 167:Generated_Source\PSoC6/sI2C.h **** * Invokes the Cy_SCB_I2C_Init() PDL driver function.
 168:Generated_Source\PSoC6/sI2C.h **** *
 169:Generated_Source\PSoC6/sI2C.h **** *******************************************************************************/
 170:Generated_Source\PSoC6/sI2C.h **** __STATIC_INLINE cy_en_scb_i2c_status_t sI2C_Init(cy_stc_scb_i2c_config_t const *config)
 171:Generated_Source\PSoC6/sI2C.h **** {
 172:Generated_Source\PSoC6/sI2C.h ****     return Cy_SCB_I2C_Init(sI2C_HW, config, &sI2C_context);
 173:Generated_Source\PSoC6/sI2C.h **** }
 174:Generated_Source\PSoC6/sI2C.h **** 
 175:Generated_Source\PSoC6/sI2C.h **** 
 176:Generated_Source\PSoC6/sI2C.h **** /*******************************************************************************
 177:Generated_Source\PSoC6/sI2C.h **** *  Function Name: sI2C_DeInit
 178:Generated_Source\PSoC6/sI2C.h **** ****************************************************************************//**
 179:Generated_Source\PSoC6/sI2C.h **** *
 180:Generated_Source\PSoC6/sI2C.h **** * Invokes the Cy_SCB_I2C_DeInit() PDL driver function.
 181:Generated_Source\PSoC6/sI2C.h **** *
 182:Generated_Source\PSoC6/sI2C.h **** *******************************************************************************/
 183:Generated_Source\PSoC6/sI2C.h **** __STATIC_INLINE void sI2C_DeInit(void)
 184:Generated_Source\PSoC6/sI2C.h **** {
 185:Generated_Source\PSoC6/sI2C.h ****     Cy_SCB_I2C_DeInit(sI2C_HW);
 186:Generated_Source\PSoC6/sI2C.h **** }
 187:Generated_Source\PSoC6/sI2C.h **** 
 188:Generated_Source\PSoC6/sI2C.h **** 
 189:Generated_Source\PSoC6/sI2C.h **** /*******************************************************************************
 190:Generated_Source\PSoC6/sI2C.h **** * Function Name: sI2C_Enable
 191:Generated_Source\PSoC6/sI2C.h **** ****************************************************************************//**
 192:Generated_Source\PSoC6/sI2C.h **** *
 193:Generated_Source\PSoC6/sI2C.h **** * Invokes the Cy_SCB_I2C_Enable() PDL driver function.
 194:Generated_Source\PSoC6/sI2C.h **** *
 195:Generated_Source\PSoC6/sI2C.h **** *******************************************************************************/
 196:Generated_Source\PSoC6/sI2C.h **** __STATIC_INLINE void sI2C_Enable(void)
 197:Generated_Source\PSoC6/sI2C.h **** {
 198:Generated_Source\PSoC6/sI2C.h ****     Cy_SCB_I2C_Enable(sI2C_HW);
 199:Generated_Source\PSoC6/sI2C.h **** }
 200:Generated_Source\PSoC6/sI2C.h **** 
 201:Generated_Source\PSoC6/sI2C.h **** 
 202:Generated_Source\PSoC6/sI2C.h **** /*******************************************************************************
ARM GAS  C:\Users\seths\AppData\Local\Temp\ccu8EsPT.s 			page 5


 203:Generated_Source\PSoC6/sI2C.h **** * Function Name: sI2C_Disable
 204:Generated_Source\PSoC6/sI2C.h **** ****************************************************************************//**
 205:Generated_Source\PSoC6/sI2C.h **** *
 206:Generated_Source\PSoC6/sI2C.h **** * Invokes the Cy_SCB_I2C_Disable() PDL driver function.
 207:Generated_Source\PSoC6/sI2C.h **** *
 208:Generated_Source\PSoC6/sI2C.h **** *******************************************************************************/
 209:Generated_Source\PSoC6/sI2C.h **** __STATIC_INLINE void sI2C_Disable(void)
 210:Generated_Source\PSoC6/sI2C.h **** {
 211:Generated_Source\PSoC6/sI2C.h ****     Cy_SCB_I2C_Disable(sI2C_HW, &sI2C_context);
 212:Generated_Source\PSoC6/sI2C.h **** }
 213:Generated_Source\PSoC6/sI2C.h **** 
 214:Generated_Source\PSoC6/sI2C.h **** 
 215:Generated_Source\PSoC6/sI2C.h **** /*******************************************************************************
 216:Generated_Source\PSoC6/sI2C.h **** * Function Name: sI2C_SetDataRate
 217:Generated_Source\PSoC6/sI2C.h **** ****************************************************************************//**
 218:Generated_Source\PSoC6/sI2C.h **** *
 219:Generated_Source\PSoC6/sI2C.h **** * Invokes the Cy_SCB_I2C_SetDataRate() PDL driver function.
 220:Generated_Source\PSoC6/sI2C.h **** *
 221:Generated_Source\PSoC6/sI2C.h **** *******************************************************************************/
 222:Generated_Source\PSoC6/sI2C.h **** __STATIC_INLINE uint32_t sI2C_SetDataRate(uint32_t dataRateHz, uint32_t scbClockHz)
 223:Generated_Source\PSoC6/sI2C.h **** {
 224:Generated_Source\PSoC6/sI2C.h ****     return Cy_SCB_I2C_SetDataRate(sI2C_HW, dataRateHz, scbClockHz);
 225:Generated_Source\PSoC6/sI2C.h **** }
 226:Generated_Source\PSoC6/sI2C.h **** 
 227:Generated_Source\PSoC6/sI2C.h **** 
 228:Generated_Source\PSoC6/sI2C.h **** /*******************************************************************************
 229:Generated_Source\PSoC6/sI2C.h **** * Function Name: sI2C_GetDataRate
 230:Generated_Source\PSoC6/sI2C.h **** ****************************************************************************//**
 231:Generated_Source\PSoC6/sI2C.h **** *
 232:Generated_Source\PSoC6/sI2C.h **** * Invokes the Cy_SCB_I2C_GetDataRate() PDL driver function.
 233:Generated_Source\PSoC6/sI2C.h **** *
 234:Generated_Source\PSoC6/sI2C.h **** *******************************************************************************/
 235:Generated_Source\PSoC6/sI2C.h **** __STATIC_INLINE uint32_t sI2C_GetDataRate(uint32_t scbClockHz)
 236:Generated_Source\PSoC6/sI2C.h **** {
 237:Generated_Source\PSoC6/sI2C.h ****     return Cy_SCB_I2C_GetDataRate(sI2C_HW, scbClockHz);
 238:Generated_Source\PSoC6/sI2C.h **** }
 239:Generated_Source\PSoC6/sI2C.h **** 
 240:Generated_Source\PSoC6/sI2C.h **** 
 241:Generated_Source\PSoC6/sI2C.h **** /*******************************************************************************
 242:Generated_Source\PSoC6/sI2C.h **** * Function Name: sI2C_RegisterEventCallback
 243:Generated_Source\PSoC6/sI2C.h **** ****************************************************************************//**
 244:Generated_Source\PSoC6/sI2C.h **** *
 245:Generated_Source\PSoC6/sI2C.h **** * Invokes the Cy_SCB_I2C_RegisterEventCallback() PDL driver function.
 246:Generated_Source\PSoC6/sI2C.h **** *
 247:Generated_Source\PSoC6/sI2C.h **** *******************************************************************************/
 248:Generated_Source\PSoC6/sI2C.h **** __STATIC_INLINE void sI2C_RegisterEventCallback(cy_cb_scb_i2c_handle_events_t callback)
 249:Generated_Source\PSoC6/sI2C.h **** {
 250:Generated_Source\PSoC6/sI2C.h ****     Cy_SCB_I2C_RegisterEventCallback(sI2C_HW, callback, &sI2C_context);
 251:Generated_Source\PSoC6/sI2C.h **** }
 252:Generated_Source\PSoC6/sI2C.h **** 
 253:Generated_Source\PSoC6/sI2C.h **** 
 254:Generated_Source\PSoC6/sI2C.h **** #if (sI2C_ENABLE_SLAVE)
 255:Generated_Source\PSoC6/sI2C.h **** /*******************************************************************************
 256:Generated_Source\PSoC6/sI2C.h **** * Function Name: sI2C_RegisterAddrCallback
 257:Generated_Source\PSoC6/sI2C.h **** ****************************************************************************//**
 258:Generated_Source\PSoC6/sI2C.h **** *
 259:Generated_Source\PSoC6/sI2C.h **** * Invokes the Cy_SCB_I2C_RegisterAddrCallback() PDL driver function.
ARM GAS  C:\Users\seths\AppData\Local\Temp\ccu8EsPT.s 			page 6


 260:Generated_Source\PSoC6/sI2C.h **** *
 261:Generated_Source\PSoC6/sI2C.h **** *******************************************************************************/
 262:Generated_Source\PSoC6/sI2C.h **** __STATIC_INLINE void sI2C_RegisterAddrCallback(cy_cb_scb_i2c_handle_addr_t callback)
 263:Generated_Source\PSoC6/sI2C.h **** {
 264:Generated_Source\PSoC6/sI2C.h ****     Cy_SCB_I2C_RegisterAddrCallback(sI2C_HW, callback, &sI2C_context);
 265:Generated_Source\PSoC6/sI2C.h **** }
 266:Generated_Source\PSoC6/sI2C.h **** #endif /* (sI2C_ENABLE_SLAVE) */
 267:Generated_Source\PSoC6/sI2C.h **** 
 268:Generated_Source\PSoC6/sI2C.h **** 
 269:Generated_Source\PSoC6/sI2C.h **** /*******************************************************************************
 270:Generated_Source\PSoC6/sI2C.h **** * Function Name: sI2C_IsBusBusy
 271:Generated_Source\PSoC6/sI2C.h **** ****************************************************************************//**
 272:Generated_Source\PSoC6/sI2C.h **** *
 273:Generated_Source\PSoC6/sI2C.h **** * Invokes the Cy_SCB_I2C_IsBusBusy() PDL driver function.
 274:Generated_Source\PSoC6/sI2C.h **** *
 275:Generated_Source\PSoC6/sI2C.h **** *******************************************************************************/
 276:Generated_Source\PSoC6/sI2C.h **** __STATIC_INLINE bool sI2C_IsBusBusy(void)
 277:Generated_Source\PSoC6/sI2C.h **** {
 278:Generated_Source\PSoC6/sI2C.h ****     return Cy_SCB_I2C_IsBusBusy(sI2C_HW);
 279:Generated_Source\PSoC6/sI2C.h **** }
 280:Generated_Source\PSoC6/sI2C.h **** 
 281:Generated_Source\PSoC6/sI2C.h **** 
 282:Generated_Source\PSoC6/sI2C.h **** #if (sI2C_ENABLE_SLAVE)
 283:Generated_Source\PSoC6/sI2C.h **** /*******************************************************************************
 284:Generated_Source\PSoC6/sI2C.h **** * Function Name: sI2C_SlaveSetAddress
 285:Generated_Source\PSoC6/sI2C.h **** ****************************************************************************//**
 286:Generated_Source\PSoC6/sI2C.h **** *
 287:Generated_Source\PSoC6/sI2C.h **** * Invokes the Cy_SCB_I2C_SlaveGetAddress() PDL driver function.
 288:Generated_Source\PSoC6/sI2C.h **** *
 289:Generated_Source\PSoC6/sI2C.h **** *******************************************************************************/
 290:Generated_Source\PSoC6/sI2C.h **** __STATIC_INLINE void sI2C_SlaveSetAddress(uint8_t addr)
 291:Generated_Source\PSoC6/sI2C.h **** {
 292:Generated_Source\PSoC6/sI2C.h ****     Cy_SCB_I2C_SlaveSetAddress(sI2C_HW, addr);
 293:Generated_Source\PSoC6/sI2C.h **** }
 294:Generated_Source\PSoC6/sI2C.h **** 
 295:Generated_Source\PSoC6/sI2C.h **** 
 296:Generated_Source\PSoC6/sI2C.h **** /*******************************************************************************
 297:Generated_Source\PSoC6/sI2C.h **** * Function Name: sI2C_SlaveGetAddress
 298:Generated_Source\PSoC6/sI2C.h **** ****************************************************************************//**
 299:Generated_Source\PSoC6/sI2C.h **** *
 300:Generated_Source\PSoC6/sI2C.h **** * Invokes the Cy_SCB_I2C_SlaveGetAddress() PDL driver function.
 301:Generated_Source\PSoC6/sI2C.h **** *
 302:Generated_Source\PSoC6/sI2C.h **** *******************************************************************************/
 303:Generated_Source\PSoC6/sI2C.h **** __STATIC_INLINE uint32_t sI2C_SlaveGetAddress(void)
 304:Generated_Source\PSoC6/sI2C.h **** {
 305:Generated_Source\PSoC6/sI2C.h ****     return Cy_SCB_I2C_SlaveGetAddress(sI2C_HW);
 306:Generated_Source\PSoC6/sI2C.h **** }
 307:Generated_Source\PSoC6/sI2C.h **** 
 308:Generated_Source\PSoC6/sI2C.h **** 
 309:Generated_Source\PSoC6/sI2C.h **** /*******************************************************************************
 310:Generated_Source\PSoC6/sI2C.h **** * Function Name: sI2C_SlaveSetAddressMask
 311:Generated_Source\PSoC6/sI2C.h **** ****************************************************************************//**
 312:Generated_Source\PSoC6/sI2C.h **** *
 313:Generated_Source\PSoC6/sI2C.h **** * Invokes the Cy_SCB_I2C_SlaveSetAddressMask() PDL driver function.
 314:Generated_Source\PSoC6/sI2C.h **** *
 315:Generated_Source\PSoC6/sI2C.h **** *******************************************************************************/
 316:Generated_Source\PSoC6/sI2C.h **** __STATIC_INLINE void sI2C_SlaveSetAddressMask(uint8_t addrMask)
ARM GAS  C:\Users\seths\AppData\Local\Temp\ccu8EsPT.s 			page 7


 317:Generated_Source\PSoC6/sI2C.h **** {
 318:Generated_Source\PSoC6/sI2C.h ****     Cy_SCB_I2C_SlaveSetAddressMask(sI2C_HW, addrMask);
 319:Generated_Source\PSoC6/sI2C.h **** }
 320:Generated_Source\PSoC6/sI2C.h **** 
 321:Generated_Source\PSoC6/sI2C.h **** 
 322:Generated_Source\PSoC6/sI2C.h **** /*******************************************************************************
 323:Generated_Source\PSoC6/sI2C.h **** * Function Name: sI2C_SlaveGetAddressMask
 324:Generated_Source\PSoC6/sI2C.h **** ****************************************************************************//**
 325:Generated_Source\PSoC6/sI2C.h **** *
 326:Generated_Source\PSoC6/sI2C.h **** * Invokes the Cy_SCB_I2C_SlaveGetAddressMask() PDL driver function.
 327:Generated_Source\PSoC6/sI2C.h **** *
 328:Generated_Source\PSoC6/sI2C.h **** *******************************************************************************/
 329:Generated_Source\PSoC6/sI2C.h **** __STATIC_INLINE uint32_t sI2C_SlaveGetAddressMask(void)
 330:Generated_Source\PSoC6/sI2C.h **** {
 331:Generated_Source\PSoC6/sI2C.h ****     return Cy_SCB_I2C_SlaveGetAddressMask(sI2C_HW);
 332:Generated_Source\PSoC6/sI2C.h **** }
 333:Generated_Source\PSoC6/sI2C.h **** #endif /* (sI2C_ENABLE_SLAVE) */
 334:Generated_Source\PSoC6/sI2C.h **** 
 335:Generated_Source\PSoC6/sI2C.h **** #if (sI2C_ENABLE_MASTER)
 336:Generated_Source\PSoC6/sI2C.h **** /*******************************************************************************
 337:Generated_Source\PSoC6/sI2C.h **** * Function Name: sI2C_MasterSetLowPhaseDutyCycle
 338:Generated_Source\PSoC6/sI2C.h **** ****************************************************************************//**
 339:Generated_Source\PSoC6/sI2C.h **** *
 340:Generated_Source\PSoC6/sI2C.h **** * Invokes the Cy_SCB_I2C_MasterSetLowPhaseDutyCycle() PDL driver function.
 341:Generated_Source\PSoC6/sI2C.h **** *
 342:Generated_Source\PSoC6/sI2C.h **** *******************************************************************************/
 343:Generated_Source\PSoC6/sI2C.h **** __STATIC_INLINE void sI2C_MasterSetLowPhaseDutyCycle(uint32_t clockCycles)
 344:Generated_Source\PSoC6/sI2C.h **** {
 345:Generated_Source\PSoC6/sI2C.h ****     Cy_SCB_I2C_MasterSetLowPhaseDutyCycle(sI2C_HW, clockCycles);
 346:Generated_Source\PSoC6/sI2C.h **** }
 347:Generated_Source\PSoC6/sI2C.h **** 
 348:Generated_Source\PSoC6/sI2C.h **** 
 349:Generated_Source\PSoC6/sI2C.h **** /*******************************************************************************
 350:Generated_Source\PSoC6/sI2C.h **** * Function Name: sI2C_MasterSetHighPhaseDutyCycle
 351:Generated_Source\PSoC6/sI2C.h **** ****************************************************************************//**
 352:Generated_Source\PSoC6/sI2C.h **** *
 353:Generated_Source\PSoC6/sI2C.h **** * Invokes the Cy_SCB_I2C_MasterSetHighPhaseDutyCycle() PDL driver function.
 354:Generated_Source\PSoC6/sI2C.h **** *
 355:Generated_Source\PSoC6/sI2C.h **** *******************************************************************************/
 356:Generated_Source\PSoC6/sI2C.h **** __STATIC_INLINE void sI2C_MasterSetHighPhaseDutyCycle(uint32_t clockCycles)
 357:Generated_Source\PSoC6/sI2C.h **** {
 358:Generated_Source\PSoC6/sI2C.h ****     Cy_SCB_I2C_MasterSetHighPhaseDutyCycle(sI2C_HW, clockCycles);
 359:Generated_Source\PSoC6/sI2C.h **** }
 360:Generated_Source\PSoC6/sI2C.h **** #endif /* (sI2C_ENABLE_MASTER) */
 361:Generated_Source\PSoC6/sI2C.h **** 
 362:Generated_Source\PSoC6/sI2C.h **** 
 363:Generated_Source\PSoC6/sI2C.h **** #if (sI2C_ENABLE_SLAVE)
 364:Generated_Source\PSoC6/sI2C.h **** /*******************************************************************************
 365:Generated_Source\PSoC6/sI2C.h **** * Function Name: sI2C_SlaveGetStatus
 366:Generated_Source\PSoC6/sI2C.h **** ****************************************************************************//**
 367:Generated_Source\PSoC6/sI2C.h **** *
 368:Generated_Source\PSoC6/sI2C.h **** * Invokes the Cy_SCB_I2C_SlaveGetStatus() PDL driver function.
 369:Generated_Source\PSoC6/sI2C.h **** *
 370:Generated_Source\PSoC6/sI2C.h **** *******************************************************************************/
 371:Generated_Source\PSoC6/sI2C.h **** __STATIC_INLINE uint32_t sI2C_SlaveGetStatus(void)
 372:Generated_Source\PSoC6/sI2C.h **** {
 373:Generated_Source\PSoC6/sI2C.h ****     return Cy_SCB_I2C_SlaveGetStatus(sI2C_HW, &sI2C_context);
ARM GAS  C:\Users\seths\AppData\Local\Temp\ccu8EsPT.s 			page 8


 374:Generated_Source\PSoC6/sI2C.h **** }
 375:Generated_Source\PSoC6/sI2C.h **** 
 376:Generated_Source\PSoC6/sI2C.h **** 
 377:Generated_Source\PSoC6/sI2C.h **** /*******************************************************************************
 378:Generated_Source\PSoC6/sI2C.h **** * Function Name: sI2C_SlaveConfigReadBuf
 379:Generated_Source\PSoC6/sI2C.h **** ****************************************************************************//**
 380:Generated_Source\PSoC6/sI2C.h **** *
 381:Generated_Source\PSoC6/sI2C.h **** * Invokes the Cy_SCB_I2C_SlaveConfigReadBuf() PDL driver function.
 382:Generated_Source\PSoC6/sI2C.h **** *
 383:Generated_Source\PSoC6/sI2C.h **** *******************************************************************************/
 384:Generated_Source\PSoC6/sI2C.h **** __STATIC_INLINE void sI2C_SlaveConfigReadBuf(uint8_t *buffer, uint32_t size)
 385:Generated_Source\PSoC6/sI2C.h **** {
 386:Generated_Source\PSoC6/sI2C.h ****     Cy_SCB_I2C_SlaveConfigReadBuf(sI2C_HW, buffer, size, &sI2C_context);
 387:Generated_Source\PSoC6/sI2C.h **** }
 388:Generated_Source\PSoC6/sI2C.h **** 
 389:Generated_Source\PSoC6/sI2C.h **** 
 390:Generated_Source\PSoC6/sI2C.h **** /*******************************************************************************
 391:Generated_Source\PSoC6/sI2C.h **** * Function Name: sI2C_SlaveAbortRead
 392:Generated_Source\PSoC6/sI2C.h **** ****************************************************************************//**
 393:Generated_Source\PSoC6/sI2C.h **** *
 394:Generated_Source\PSoC6/sI2C.h **** * Invokes the Cy_SCB_I2C_SlaveAbortRead() PDL driver function.
 395:Generated_Source\PSoC6/sI2C.h **** *
 396:Generated_Source\PSoC6/sI2C.h **** *******************************************************************************/
 397:Generated_Source\PSoC6/sI2C.h **** __STATIC_INLINE void sI2C_SlaveAbortRead(void)
 398:Generated_Source\PSoC6/sI2C.h **** {
 399:Generated_Source\PSoC6/sI2C.h ****     Cy_SCB_I2C_SlaveAbortRead(sI2C_HW, &sI2C_context);
 400:Generated_Source\PSoC6/sI2C.h **** }
 401:Generated_Source\PSoC6/sI2C.h **** 
 402:Generated_Source\PSoC6/sI2C.h **** 
 403:Generated_Source\PSoC6/sI2C.h **** /*******************************************************************************
 404:Generated_Source\PSoC6/sI2C.h **** * Function Name: sI2C_SlaveGetReadTransferCount
 405:Generated_Source\PSoC6/sI2C.h **** ****************************************************************************//**
 406:Generated_Source\PSoC6/sI2C.h **** *
 407:Generated_Source\PSoC6/sI2C.h **** * Invokes the Cy_SCB_I2C_SlaveGetReadTransferCount() PDL driver function.
 408:Generated_Source\PSoC6/sI2C.h **** *
 409:Generated_Source\PSoC6/sI2C.h **** *******************************************************************************/
 410:Generated_Source\PSoC6/sI2C.h **** __STATIC_INLINE uint32_t sI2C_SlaveGetReadTransferCount(void)
 411:Generated_Source\PSoC6/sI2C.h **** {
 412:Generated_Source\PSoC6/sI2C.h ****     return Cy_SCB_I2C_SlaveGetReadTransferCount(sI2C_HW, &sI2C_context);
 413:Generated_Source\PSoC6/sI2C.h **** }
 414:Generated_Source\PSoC6/sI2C.h **** 
 415:Generated_Source\PSoC6/sI2C.h **** 
 416:Generated_Source\PSoC6/sI2C.h **** /*******************************************************************************
 417:Generated_Source\PSoC6/sI2C.h **** * Function Name: sI2C_SlaveClearReadStatus
 418:Generated_Source\PSoC6/sI2C.h **** ****************************************************************************//**
 419:Generated_Source\PSoC6/sI2C.h **** *
 420:Generated_Source\PSoC6/sI2C.h **** * Invokes the Cy_SCB_I2C_SlaveClearReadStatus() PDL driver function.
 421:Generated_Source\PSoC6/sI2C.h **** *
 422:Generated_Source\PSoC6/sI2C.h **** *******************************************************************************/
 423:Generated_Source\PSoC6/sI2C.h **** __STATIC_INLINE uint32_t sI2C_SlaveClearReadStatus(void)
 424:Generated_Source\PSoC6/sI2C.h **** {
 425:Generated_Source\PSoC6/sI2C.h ****     return Cy_SCB_I2C_SlaveClearReadStatus(sI2C_HW, &sI2C_context);
 426:Generated_Source\PSoC6/sI2C.h **** }
 427:Generated_Source\PSoC6/sI2C.h **** 
 428:Generated_Source\PSoC6/sI2C.h **** 
 429:Generated_Source\PSoC6/sI2C.h **** /*******************************************************************************
 430:Generated_Source\PSoC6/sI2C.h **** * Function Name: sI2C_SlaveConfigWriteBuf
ARM GAS  C:\Users\seths\AppData\Local\Temp\ccu8EsPT.s 			page 9


 431:Generated_Source\PSoC6/sI2C.h **** ****************************************************************************//**
 432:Generated_Source\PSoC6/sI2C.h **** *
 433:Generated_Source\PSoC6/sI2C.h **** * Invokes the Cy_SCB_I2C_SlaveConfigWriteBuf() PDL driver function.
 434:Generated_Source\PSoC6/sI2C.h **** *
 435:Generated_Source\PSoC6/sI2C.h **** *******************************************************************************/
 436:Generated_Source\PSoC6/sI2C.h **** __STATIC_INLINE void sI2C_SlaveConfigWriteBuf(uint8_t *buffer, uint32_t size)
 437:Generated_Source\PSoC6/sI2C.h **** {
 438:Generated_Source\PSoC6/sI2C.h ****     Cy_SCB_I2C_SlaveConfigWriteBuf(sI2C_HW, buffer, size, &sI2C_context);
 439:Generated_Source\PSoC6/sI2C.h **** }
 440:Generated_Source\PSoC6/sI2C.h **** 
 441:Generated_Source\PSoC6/sI2C.h **** 
 442:Generated_Source\PSoC6/sI2C.h **** /*******************************************************************************
 443:Generated_Source\PSoC6/sI2C.h **** * Function Name: sI2C_SlaveAbortWrite
 444:Generated_Source\PSoC6/sI2C.h **** ****************************************************************************//**
 445:Generated_Source\PSoC6/sI2C.h **** *
 446:Generated_Source\PSoC6/sI2C.h **** * Invokes the Cy_SCB_I2C_SlaveAbortWrite() PDL driver function.
 447:Generated_Source\PSoC6/sI2C.h **** *
 448:Generated_Source\PSoC6/sI2C.h **** *******************************************************************************/
 449:Generated_Source\PSoC6/sI2C.h **** __STATIC_INLINE void sI2C_SlaveAbortWrite(void)
 450:Generated_Source\PSoC6/sI2C.h **** {
 451:Generated_Source\PSoC6/sI2C.h ****     Cy_SCB_I2C_SlaveAbortWrite(sI2C_HW, &sI2C_context);
 452:Generated_Source\PSoC6/sI2C.h **** }
 453:Generated_Source\PSoC6/sI2C.h **** 
 454:Generated_Source\PSoC6/sI2C.h **** 
 455:Generated_Source\PSoC6/sI2C.h **** /*******************************************************************************
 456:Generated_Source\PSoC6/sI2C.h **** * Function Name: sI2C_SlaveGetWriteTransferCount
 457:Generated_Source\PSoC6/sI2C.h **** ****************************************************************************//**
 458:Generated_Source\PSoC6/sI2C.h **** *
 459:Generated_Source\PSoC6/sI2C.h **** * Invokes the Cy_SCB_I2C_SlaveGetWriteTransferCount() PDL driver function.
 460:Generated_Source\PSoC6/sI2C.h **** *
 461:Generated_Source\PSoC6/sI2C.h **** *******************************************************************************/
 462:Generated_Source\PSoC6/sI2C.h **** __STATIC_INLINE uint32_t sI2C_SlaveGetWriteTransferCount(void)
 463:Generated_Source\PSoC6/sI2C.h **** {
 464:Generated_Source\PSoC6/sI2C.h ****     return Cy_SCB_I2C_SlaveGetWriteTransferCount(sI2C_HW, &sI2C_context);
 465:Generated_Source\PSoC6/sI2C.h **** }
 466:Generated_Source\PSoC6/sI2C.h **** 
 467:Generated_Source\PSoC6/sI2C.h **** 
 468:Generated_Source\PSoC6/sI2C.h **** /*******************************************************************************
 469:Generated_Source\PSoC6/sI2C.h **** * Function Name: sI2C_SlaveClearWriteStatus
 470:Generated_Source\PSoC6/sI2C.h **** ****************************************************************************//**
 471:Generated_Source\PSoC6/sI2C.h **** *
 472:Generated_Source\PSoC6/sI2C.h **** * Invokes the Cy_SCB_I2C_SlaveClearWriteStatus() PDL driver function.
 473:Generated_Source\PSoC6/sI2C.h **** *
 474:Generated_Source\PSoC6/sI2C.h **** *******************************************************************************/
 475:Generated_Source\PSoC6/sI2C.h **** __STATIC_INLINE uint32_t sI2C_SlaveClearWriteStatus(void)
 476:Generated_Source\PSoC6/sI2C.h **** {
 477:Generated_Source\PSoC6/sI2C.h ****     return Cy_SCB_I2C_SlaveClearWriteStatus(sI2C_HW, &sI2C_context);
 478:Generated_Source\PSoC6/sI2C.h **** }
 479:Generated_Source\PSoC6/sI2C.h **** #endif /* (sI2C_ENABLE_SLAVE) */
 480:Generated_Source\PSoC6/sI2C.h **** 
 481:Generated_Source\PSoC6/sI2C.h **** 
 482:Generated_Source\PSoC6/sI2C.h **** #if (sI2C_ENABLE_MASTER)
 483:Generated_Source\PSoC6/sI2C.h **** /*******************************************************************************
 484:Generated_Source\PSoC6/sI2C.h **** * Function Name: sI2C_MasterGetStatus
 485:Generated_Source\PSoC6/sI2C.h **** ****************************************************************************//**
 486:Generated_Source\PSoC6/sI2C.h **** *
 487:Generated_Source\PSoC6/sI2C.h **** * Invokes the Cy_SCB_I2C_MasterGetStatus() PDL driver function.
ARM GAS  C:\Users\seths\AppData\Local\Temp\ccu8EsPT.s 			page 10


 488:Generated_Source\PSoC6/sI2C.h **** *
 489:Generated_Source\PSoC6/sI2C.h **** *******************************************************************************/
 490:Generated_Source\PSoC6/sI2C.h **** __STATIC_INLINE uint32_t sI2C_MasterGetStatus(void)
 491:Generated_Source\PSoC6/sI2C.h **** {
 492:Generated_Source\PSoC6/sI2C.h ****     return Cy_SCB_I2C_MasterGetStatus(sI2C_HW, &sI2C_context);
 493:Generated_Source\PSoC6/sI2C.h **** }
 494:Generated_Source\PSoC6/sI2C.h **** 
 495:Generated_Source\PSoC6/sI2C.h **** 
 496:Generated_Source\PSoC6/sI2C.h **** /*******************************************************************************
 497:Generated_Source\PSoC6/sI2C.h **** * Function Name: sI2C_MasterRead
 498:Generated_Source\PSoC6/sI2C.h **** ****************************************************************************//**
 499:Generated_Source\PSoC6/sI2C.h **** *
 500:Generated_Source\PSoC6/sI2C.h **** * Invokes the Cy_SCB_I2C_MasterRead() PDL driver function.
 501:Generated_Source\PSoC6/sI2C.h **** *
 502:Generated_Source\PSoC6/sI2C.h **** *******************************************************************************/
 503:Generated_Source\PSoC6/sI2C.h **** __STATIC_INLINE cy_en_scb_i2c_status_t sI2C_MasterRead(cy_stc_scb_i2c_master_xfer_config_t *xferCon
 504:Generated_Source\PSoC6/sI2C.h **** {
 505:Generated_Source\PSoC6/sI2C.h ****     return Cy_SCB_I2C_MasterRead(sI2C_HW, xferConfig, &sI2C_context);
 506:Generated_Source\PSoC6/sI2C.h **** }
 507:Generated_Source\PSoC6/sI2C.h **** 
 508:Generated_Source\PSoC6/sI2C.h **** 
 509:Generated_Source\PSoC6/sI2C.h **** /*******************************************************************************
 510:Generated_Source\PSoC6/sI2C.h **** * Function Name: sI2C_MasterAbortRead
 511:Generated_Source\PSoC6/sI2C.h **** ****************************************************************************//**
 512:Generated_Source\PSoC6/sI2C.h **** *
 513:Generated_Source\PSoC6/sI2C.h **** * Invokes the Cy_SCB_I2C_MasterAbortRead() PDL driver function.
 514:Generated_Source\PSoC6/sI2C.h **** *
 515:Generated_Source\PSoC6/sI2C.h **** ******************************************************************************/
 516:Generated_Source\PSoC6/sI2C.h **** __STATIC_INLINE void sI2C_MasterAbortRead(void)
 517:Generated_Source\PSoC6/sI2C.h **** {
 518:Generated_Source\PSoC6/sI2C.h ****     Cy_SCB_I2C_MasterAbortRead(sI2C_HW, &sI2C_context);
 519:Generated_Source\PSoC6/sI2C.h **** }
 520:Generated_Source\PSoC6/sI2C.h **** 
 521:Generated_Source\PSoC6/sI2C.h **** 
 522:Generated_Source\PSoC6/sI2C.h **** /*******************************************************************************
 523:Generated_Source\PSoC6/sI2C.h **** * Function Name: sI2C_MasterWrite
 524:Generated_Source\PSoC6/sI2C.h **** ****************************************************************************//**
 525:Generated_Source\PSoC6/sI2C.h **** *
 526:Generated_Source\PSoC6/sI2C.h **** * Invokes the Cy_SCB_I2C_MasterWrite() PDL driver function.
 527:Generated_Source\PSoC6/sI2C.h **** *
 528:Generated_Source\PSoC6/sI2C.h **** *******************************************************************************/
 529:Generated_Source\PSoC6/sI2C.h **** __STATIC_INLINE cy_en_scb_i2c_status_t sI2C_MasterWrite(cy_stc_scb_i2c_master_xfer_config_t *xferCo
 530:Generated_Source\PSoC6/sI2C.h **** {
 531:Generated_Source\PSoC6/sI2C.h ****     return Cy_SCB_I2C_MasterWrite(sI2C_HW, xferConfig, &sI2C_context);
 532:Generated_Source\PSoC6/sI2C.h **** }
 533:Generated_Source\PSoC6/sI2C.h **** 
 534:Generated_Source\PSoC6/sI2C.h **** 
 535:Generated_Source\PSoC6/sI2C.h **** /*******************************************************************************
 536:Generated_Source\PSoC6/sI2C.h **** * Function Name: sI2C_MasterAbortWrite
 537:Generated_Source\PSoC6/sI2C.h **** ****************************************************************************//**
 538:Generated_Source\PSoC6/sI2C.h **** *
 539:Generated_Source\PSoC6/sI2C.h **** * Invokes the Cy_SCB_I2C_MasterAbortWrite() PDL driver function.
 540:Generated_Source\PSoC6/sI2C.h **** *
 541:Generated_Source\PSoC6/sI2C.h **** *******************************************************************************/
 542:Generated_Source\PSoC6/sI2C.h **** __STATIC_INLINE void sI2C_MasterAbortWrite(void)
 543:Generated_Source\PSoC6/sI2C.h **** {
 544:Generated_Source\PSoC6/sI2C.h ****     Cy_SCB_I2C_MasterAbortWrite(sI2C_HW, &sI2C_context);
ARM GAS  C:\Users\seths\AppData\Local\Temp\ccu8EsPT.s 			page 11


 545:Generated_Source\PSoC6/sI2C.h **** }
 546:Generated_Source\PSoC6/sI2C.h **** 
 547:Generated_Source\PSoC6/sI2C.h **** 
 548:Generated_Source\PSoC6/sI2C.h **** /*******************************************************************************
 549:Generated_Source\PSoC6/sI2C.h **** * Function Name: sI2C_MasterGetTransferCount
 550:Generated_Source\PSoC6/sI2C.h **** ****************************************************************************//**
 551:Generated_Source\PSoC6/sI2C.h **** *
 552:Generated_Source\PSoC6/sI2C.h **** * Invokes the Cy_SCB_I2C_MasterGetTransferCount() PDL driver function.
 553:Generated_Source\PSoC6/sI2C.h **** *
 554:Generated_Source\PSoC6/sI2C.h **** *******************************************************************************/
 555:Generated_Source\PSoC6/sI2C.h **** __STATIC_INLINE uint32_t sI2C_MasterGetTransferCount(void)
 556:Generated_Source\PSoC6/sI2C.h **** {
 557:Generated_Source\PSoC6/sI2C.h ****     return Cy_SCB_I2C_MasterGetTransferCount(sI2C_HW, &sI2C_context);
 558:Generated_Source\PSoC6/sI2C.h **** }
 559:Generated_Source\PSoC6/sI2C.h **** 
 560:Generated_Source\PSoC6/sI2C.h **** 
 561:Generated_Source\PSoC6/sI2C.h **** /*******************************************************************************
 562:Generated_Source\PSoC6/sI2C.h **** * Function Name: sI2C_MasterSendStart
 563:Generated_Source\PSoC6/sI2C.h **** ****************************************************************************//**
 564:Generated_Source\PSoC6/sI2C.h **** *
 565:Generated_Source\PSoC6/sI2C.h **** * Invokes the Cy_SCB_I2C_MasterSendStart() PDL driver function.
 566:Generated_Source\PSoC6/sI2C.h **** *
 567:Generated_Source\PSoC6/sI2C.h **** *******************************************************************************/
 568:Generated_Source\PSoC6/sI2C.h **** __STATIC_INLINE cy_en_scb_i2c_status_t sI2C_MasterSendStart(uint32_t address, cy_en_scb_i2c_directi
 569:Generated_Source\PSoC6/sI2C.h **** {
 570:Generated_Source\PSoC6/sI2C.h ****     return Cy_SCB_I2C_MasterSendStart(sI2C_HW, address, bitRnW, timeoutMs, &sI2C_context);
 571:Generated_Source\PSoC6/sI2C.h **** }
 572:Generated_Source\PSoC6/sI2C.h **** 
 573:Generated_Source\PSoC6/sI2C.h **** 
 574:Generated_Source\PSoC6/sI2C.h **** /*******************************************************************************
 575:Generated_Source\PSoC6/sI2C.h **** * Function Name: sI2C_MasterSendReStart
 576:Generated_Source\PSoC6/sI2C.h **** ****************************************************************************//**
 577:Generated_Source\PSoC6/sI2C.h **** *
 578:Generated_Source\PSoC6/sI2C.h **** * Invokes the Cy_SCB_I2C_MasterSendReStart() PDL driver function.
 579:Generated_Source\PSoC6/sI2C.h **** *
 580:Generated_Source\PSoC6/sI2C.h **** *******************************************************************************/
 581:Generated_Source\PSoC6/sI2C.h **** __STATIC_INLINE cy_en_scb_i2c_status_t sI2C_MasterSendReStart(uint32_t address, cy_en_scb_i2c_direc
 582:Generated_Source\PSoC6/sI2C.h **** {
 583:Generated_Source\PSoC6/sI2C.h ****     return Cy_SCB_I2C_MasterSendReStart(sI2C_HW, address, bitRnW, timeoutMs, &sI2C_context);
 584:Generated_Source\PSoC6/sI2C.h **** }
 585:Generated_Source\PSoC6/sI2C.h **** 
 586:Generated_Source\PSoC6/sI2C.h **** 
 587:Generated_Source\PSoC6/sI2C.h **** /*******************************************************************************
 588:Generated_Source\PSoC6/sI2C.h **** * Function Name: sI2C_MasterSendStop
 589:Generated_Source\PSoC6/sI2C.h **** ****************************************************************************//**
 590:Generated_Source\PSoC6/sI2C.h **** *
 591:Generated_Source\PSoC6/sI2C.h **** * Invokes the Cy_SCB_I2C_MasterSendStop() PDL driver function.
 592:Generated_Source\PSoC6/sI2C.h **** *
 593:Generated_Source\PSoC6/sI2C.h **** *******************************************************************************/
 594:Generated_Source\PSoC6/sI2C.h **** __STATIC_INLINE cy_en_scb_i2c_status_t sI2C_MasterSendStop(uint32_t timeoutMs)
 595:Generated_Source\PSoC6/sI2C.h **** {
 596:Generated_Source\PSoC6/sI2C.h ****     return Cy_SCB_I2C_MasterSendStop(sI2C_HW, timeoutMs, &sI2C_context);
 597:Generated_Source\PSoC6/sI2C.h **** }
 598:Generated_Source\PSoC6/sI2C.h **** 
 599:Generated_Source\PSoC6/sI2C.h **** 
 600:Generated_Source\PSoC6/sI2C.h **** /*******************************************************************************
 601:Generated_Source\PSoC6/sI2C.h **** * Function Name: sI2C_MasterReadByte
ARM GAS  C:\Users\seths\AppData\Local\Temp\ccu8EsPT.s 			page 12


 602:Generated_Source\PSoC6/sI2C.h **** ****************************************************************************//**
 603:Generated_Source\PSoC6/sI2C.h **** *
 604:Generated_Source\PSoC6/sI2C.h **** * Invokes the Cy_SCB_I2C_MasterReadByte() PDL driver function.
 605:Generated_Source\PSoC6/sI2C.h **** *
 606:Generated_Source\PSoC6/sI2C.h **** *******************************************************************************/
 607:Generated_Source\PSoC6/sI2C.h **** __STATIC_INLINE cy_en_scb_i2c_status_t sI2C_MasterReadByte(cy_en_scb_i2c_command_t ackNack, uint8_t
 608:Generated_Source\PSoC6/sI2C.h **** {
 609:Generated_Source\PSoC6/sI2C.h ****     return Cy_SCB_I2C_MasterReadByte(sI2C_HW, ackNack, byte, timeoutMs, &sI2C_context);
 610:Generated_Source\PSoC6/sI2C.h **** }
 611:Generated_Source\PSoC6/sI2C.h **** 
 612:Generated_Source\PSoC6/sI2C.h **** 
 613:Generated_Source\PSoC6/sI2C.h **** /*******************************************************************************
 614:Generated_Source\PSoC6/sI2C.h **** * Function Name: sI2C_MasterWriteByte
 615:Generated_Source\PSoC6/sI2C.h **** ****************************************************************************//**
 616:Generated_Source\PSoC6/sI2C.h **** *
 617:Generated_Source\PSoC6/sI2C.h **** * Invokes the Cy_SCB_I2C_MasterWriteByte() PDL driver function.
 618:Generated_Source\PSoC6/sI2C.h **** *
 619:Generated_Source\PSoC6/sI2C.h **** *******************************************************************************/
 620:Generated_Source\PSoC6/sI2C.h **** __STATIC_INLINE cy_en_scb_i2c_status_t sI2C_MasterWriteByte(uint8_t byte, uint32_t timeoutMs)
 621:Generated_Source\PSoC6/sI2C.h **** {
 622:Generated_Source\PSoC6/sI2C.h ****     return Cy_SCB_I2C_MasterWriteByte(sI2C_HW, byte, timeoutMs, &sI2C_context);
 623:Generated_Source\PSoC6/sI2C.h **** }
 624:Generated_Source\PSoC6/sI2C.h **** #endif /* (sI2C_ENABLE_MASTER) */
 625:Generated_Source\PSoC6/sI2C.h **** 
 626:Generated_Source\PSoC6/sI2C.h **** 
 627:Generated_Source\PSoC6/sI2C.h **** /*******************************************************************************
 628:Generated_Source\PSoC6/sI2C.h **** * Function Name: sI2C_Interrupt
 629:Generated_Source\PSoC6/sI2C.h **** ****************************************************************************//**
 630:Generated_Source\PSoC6/sI2C.h **** *
 631:Generated_Source\PSoC6/sI2C.h **** * Invokes the Cy_SCB_I2C_Interrupt() PDL driver function.
 632:Generated_Source\PSoC6/sI2C.h **** *
 633:Generated_Source\PSoC6/sI2C.h **** *******************************************************************************/
 634:Generated_Source\PSoC6/sI2C.h **** __STATIC_INLINE void sI2C_Interrupt(void)
 635:Generated_Source\PSoC6/sI2C.h **** {
  27              		.loc 1 635 0
  28              		.cfi_startproc
  29              		@ args = 0, pretend = 0, frame = 0
  30              		@ frame_needed = 0, uses_anonymous_args = 0
  31 0000 10B5     		push	{r4, lr}
  32              		.cfi_def_cfa_offset 8
  33              		.cfi_offset 4, -8
  34              		.cfi_offset 14, -4
 636:Generated_Source\PSoC6/sI2C.h ****     Cy_SCB_I2C_Interrupt(sI2C_HW, &sI2C_context);
  35              		.loc 1 636 0
  36 0002 0249     		ldr	r1, .L2
  37 0004 0248     		ldr	r0, .L2+4
  38 0006 FFF7FEFF 		bl	Cy_SCB_I2C_Interrupt
  39              	.LVL0:
 637:Generated_Source\PSoC6/sI2C.h **** }
  40              		.loc 1 637 0
  41              		@ sp needed
  42 000a 10BD     		pop	{r4, pc}
  43              	.L3:
  44              		.align	2
  45              	.L2:
  46 000c 00000000 		.word	sI2C_context
  47 0010 00006340 		.word	1080229888
ARM GAS  C:\Users\seths\AppData\Local\Temp\ccu8EsPT.s 			page 13


  48              		.cfi_endproc
  49              	.LFE163:
  50              		.size	sI2C_Interrupt, .-sI2C_Interrupt
  51              		.section	.text.sI2C_Start,"ax",%progbits
  52              		.align	2
  53              		.global	sI2C_Start
  54              		.code	16
  55              		.thumb_func
  56              		.type	sI2C_Start, %function
  57              	sI2C_Start:
  58              	.LFB166:
  59              		.file 2 "Generated_Source\\PSoC6\\sI2C.c"
   1:Generated_Source\PSoC6/sI2C.c **** /***************************************************************************//**
   2:Generated_Source\PSoC6/sI2C.c **** * \file sI2C.c
   3:Generated_Source\PSoC6/sI2C.c **** * \version 2.0
   4:Generated_Source\PSoC6/sI2C.c **** *
   5:Generated_Source\PSoC6/sI2C.c **** *  This file provides the source code to the API for the I2C Component.
   6:Generated_Source\PSoC6/sI2C.c **** *
   7:Generated_Source\PSoC6/sI2C.c **** ********************************************************************************
   8:Generated_Source\PSoC6/sI2C.c **** * \copyright
   9:Generated_Source\PSoC6/sI2C.c **** * Copyright 2016-2017, Cypress Semiconductor Corporation. All rights reserved.
  10:Generated_Source\PSoC6/sI2C.c **** * You may use this file only in accordance with the license, terms, conditions,
  11:Generated_Source\PSoC6/sI2C.c **** * disclaimers, and limitations in the end user license agreement accompanying
  12:Generated_Source\PSoC6/sI2C.c **** * the software package with which this file was provided.
  13:Generated_Source\PSoC6/sI2C.c **** *******************************************************************************/
  14:Generated_Source\PSoC6/sI2C.c **** 
  15:Generated_Source\PSoC6/sI2C.c **** #include "sI2C.h"
  16:Generated_Source\PSoC6/sI2C.c **** #include "sysint/cy_sysint.h"
  17:Generated_Source\PSoC6/sI2C.c **** #include "cyfitter_sysint.h"
  18:Generated_Source\PSoC6/sI2C.c **** #include "cyfitter_sysint_cfg.h"
  19:Generated_Source\PSoC6/sI2C.c **** 
  20:Generated_Source\PSoC6/sI2C.c **** 
  21:Generated_Source\PSoC6/sI2C.c **** #if defined(__cplusplus)
  22:Generated_Source\PSoC6/sI2C.c **** extern "C" {
  23:Generated_Source\PSoC6/sI2C.c **** #endif
  24:Generated_Source\PSoC6/sI2C.c **** 
  25:Generated_Source\PSoC6/sI2C.c **** /***************************************
  26:Generated_Source\PSoC6/sI2C.c **** *     Global variables
  27:Generated_Source\PSoC6/sI2C.c **** ***************************************/
  28:Generated_Source\PSoC6/sI2C.c **** 
  29:Generated_Source\PSoC6/sI2C.c **** /** sI2C_initVar indicates whether the sI2C
  30:Generated_Source\PSoC6/sI2C.c **** *  component has been initialized. The variable is initialized to 0
  31:Generated_Source\PSoC6/sI2C.c **** *  and set to 1 the first time sI2C_Start() is called.
  32:Generated_Source\PSoC6/sI2C.c **** *  This allows  the component to restart without reinitialization
  33:Generated_Source\PSoC6/sI2C.c **** *  after the first call to the sI2C_Start() routine.
  34:Generated_Source\PSoC6/sI2C.c **** *
  35:Generated_Source\PSoC6/sI2C.c **** *  If re-initialization of the component is required, then the
  36:Generated_Source\PSoC6/sI2C.c **** *  sI2C_Init() function can be called before the
  37:Generated_Source\PSoC6/sI2C.c **** *  sI2C_Start() or sI2C_Enable() function.
  38:Generated_Source\PSoC6/sI2C.c **** */
  39:Generated_Source\PSoC6/sI2C.c **** uint8_t sI2C_initVar = 0U;
  40:Generated_Source\PSoC6/sI2C.c **** 
  41:Generated_Source\PSoC6/sI2C.c **** /** The instance-specific configuration structure.
  42:Generated_Source\PSoC6/sI2C.c **** * The pointer to this structure should be passed to Cy_SCB_I2C_Init function
  43:Generated_Source\PSoC6/sI2C.c **** * to initialize component with GUI selected settings.
  44:Generated_Source\PSoC6/sI2C.c **** */
  45:Generated_Source\PSoC6/sI2C.c **** cy_stc_scb_i2c_config_t const sI2C_config =
ARM GAS  C:\Users\seths\AppData\Local\Temp\ccu8EsPT.s 			page 14


  46:Generated_Source\PSoC6/sI2C.c **** {
  47:Generated_Source\PSoC6/sI2C.c ****     .i2cMode    = CY_SCB_I2C_SLAVE,
  48:Generated_Source\PSoC6/sI2C.c **** 
  49:Generated_Source\PSoC6/sI2C.c ****     .useRxFifo = true,
  50:Generated_Source\PSoC6/sI2C.c ****     .useTxFifo = true,
  51:Generated_Source\PSoC6/sI2C.c **** 
  52:Generated_Source\PSoC6/sI2C.c ****     .slaveAddress        = 0x24U,
  53:Generated_Source\PSoC6/sI2C.c ****     .slaveAddressMask    = 0xFEU,
  54:Generated_Source\PSoC6/sI2C.c ****     .acceptAddrInFifo    = false,
  55:Generated_Source\PSoC6/sI2C.c ****     .ackGeneralAddr      = false,
  56:Generated_Source\PSoC6/sI2C.c **** 
  57:Generated_Source\PSoC6/sI2C.c ****     .enableWakeFromSleep = false
  58:Generated_Source\PSoC6/sI2C.c **** };
  59:Generated_Source\PSoC6/sI2C.c **** 
  60:Generated_Source\PSoC6/sI2C.c **** /** The instance-specific context structure.
  61:Generated_Source\PSoC6/sI2C.c **** * It is used while the driver operation for internal configuration and
  62:Generated_Source\PSoC6/sI2C.c **** * data keeping for the I2C. The user should not modify anything in this
  63:Generated_Source\PSoC6/sI2C.c **** * structure.
  64:Generated_Source\PSoC6/sI2C.c **** */
  65:Generated_Source\PSoC6/sI2C.c **** cy_stc_scb_i2c_context_t sI2C_context;
  66:Generated_Source\PSoC6/sI2C.c **** 
  67:Generated_Source\PSoC6/sI2C.c **** 
  68:Generated_Source\PSoC6/sI2C.c **** /*******************************************************************************
  69:Generated_Source\PSoC6/sI2C.c **** * Function Name: sI2C_Start
  70:Generated_Source\PSoC6/sI2C.c **** ****************************************************************************//**
  71:Generated_Source\PSoC6/sI2C.c **** *
  72:Generated_Source\PSoC6/sI2C.c **** * Invokes sI2C_Init() and sI2C_Enable().
  73:Generated_Source\PSoC6/sI2C.c **** * Also configures interrupt and low and high oversampling phases.
  74:Generated_Source\PSoC6/sI2C.c **** * After this function call the component is enabled and ready for operation.
  75:Generated_Source\PSoC6/sI2C.c **** * This is the preferred method to begin component operation.
  76:Generated_Source\PSoC6/sI2C.c **** *
  77:Generated_Source\PSoC6/sI2C.c **** * \globalvars
  78:Generated_Source\PSoC6/sI2C.c **** * \ref sI2C_initVar - used to check initial configuration,
  79:Generated_Source\PSoC6/sI2C.c **** * modified  on first function call.
  80:Generated_Source\PSoC6/sI2C.c **** *
  81:Generated_Source\PSoC6/sI2C.c **** *******************************************************************************/
  82:Generated_Source\PSoC6/sI2C.c **** void sI2C_Start(void)
  83:Generated_Source\PSoC6/sI2C.c **** {
  60              		.loc 2 83 0
  61              		.cfi_startproc
  62              		@ args = 0, pretend = 0, frame = 0
  63              		@ frame_needed = 0, uses_anonymous_args = 0
  64 0000 10B5     		push	{r4, lr}
  65              		.cfi_def_cfa_offset 8
  66              		.cfi_offset 4, -8
  67              		.cfi_offset 14, -4
  84:Generated_Source\PSoC6/sI2C.c ****     if (0U == sI2C_initVar)
  68              		.loc 2 84 0
  69 0002 114B     		ldr	r3, .L7
  70 0004 1B78     		ldrb	r3, [r3]
  71 0006 002B     		cmp	r3, #0
  72 0008 0BD1     		bne	.L5
  85:Generated_Source\PSoC6/sI2C.c ****     {
  86:Generated_Source\PSoC6/sI2C.c ****         /* Configure component */
  87:Generated_Source\PSoC6/sI2C.c ****         (void) Cy_SCB_I2C_Init(sI2C_HW, &sI2C_config, &sI2C_context);
  73              		.loc 2 87 0
  74 000a 104A     		ldr	r2, .L7+4
ARM GAS  C:\Users\seths\AppData\Local\Temp\ccu8EsPT.s 			page 15


  75 000c 1049     		ldr	r1, .L7+8
  76 000e 1148     		ldr	r0, .L7+12
  77 0010 FFF7FEFF 		bl	Cy_SCB_I2C_Init
  78              	.LVL1:
  88:Generated_Source\PSoC6/sI2C.c **** 
  89:Generated_Source\PSoC6/sI2C.c ****     #if (sI2C_ENABLE_MASTER)
  90:Generated_Source\PSoC6/sI2C.c ****         /* Configure desired data rate */
  91:Generated_Source\PSoC6/sI2C.c ****         (void) Cy_SCB_I2C_SetDataRate(sI2C_HW, sI2C_DATA_RATE_HZ, sI2C_CLK_FREQ_HZ);
  92:Generated_Source\PSoC6/sI2C.c **** 
  93:Generated_Source\PSoC6/sI2C.c ****         #if (sI2C_MANUAL_SCL_CONTROL)
  94:Generated_Source\PSoC6/sI2C.c ****             Cy_SCB_I2C_MasterSetLowPhaseDutyCycle (sI2C_HW, sI2C_LOW_PHASE_DUTY_CYCLE);
  95:Generated_Source\PSoC6/sI2C.c ****             Cy_SCB_I2C_MasterSetHighPhaseDutyCycle(sI2C_HW, sI2C_HIGH_PHASE_DUTY_CYCLE);
  96:Generated_Source\PSoC6/sI2C.c ****         #endif /* (sI2C_MANUAL_SCL_CONTROL) */
  97:Generated_Source\PSoC6/sI2C.c ****     #endif /* (sI2C_ENABLE_MASTER) */
  98:Generated_Source\PSoC6/sI2C.c **** 
  99:Generated_Source\PSoC6/sI2C.c ****         /* Hook interrupt service routine */
 100:Generated_Source\PSoC6/sI2C.c ****     #if defined(sI2C_SCB_IRQ__INTC_ASSIGNED)
 101:Generated_Source\PSoC6/sI2C.c ****         (void) Cy_SysInt_Init(&sI2C_SCB_IRQ_cfg, &sI2C_Interrupt);
  79              		.loc 2 101 0
  80 0014 1049     		ldr	r1, .L7+16
  81 0016 1148     		ldr	r0, .L7+20
  82 0018 FFF7FEFF 		bl	Cy_SysInt_Init
  83              	.LVL2:
 102:Generated_Source\PSoC6/sI2C.c ****     #endif /* (sI2C_SCB_IRQ__INTC_ASSIGNED) */
 103:Generated_Source\PSoC6/sI2C.c **** 
 104:Generated_Source\PSoC6/sI2C.c ****         sI2C_initVar = 1U;
  84              		.loc 2 104 0
  85 001c 0122     		movs	r2, #1
  86 001e 0A4B     		ldr	r3, .L7
  87 0020 1A70     		strb	r2, [r3]
  88              	.L5:
 105:Generated_Source\PSoC6/sI2C.c ****     }
 106:Generated_Source\PSoC6/sI2C.c **** 
 107:Generated_Source\PSoC6/sI2C.c ****     /* Enable interrupt in NVIC */
 108:Generated_Source\PSoC6/sI2C.c **** #if defined(sI2C_SCB_IRQ__INTC_ASSIGNED)
 109:Generated_Source\PSoC6/sI2C.c ****     NVIC_EnableIRQ((IRQn_Type) sI2C_SCB_IRQ_cfg.intrSrc);
  89              		.loc 2 109 0
  90 0022 0E4B     		ldr	r3, .L7+20
  91 0024 0022     		movs	r2, #0
  92 0026 9A5E     		ldrsh	r2, [r3, r2]
  93              	.LVL3:
  94              	.LBB6:
  95              	.LBB7:
  96              		.file 3 "Generated_Source\\PSoC6\\pdl\\cmsis/include/core_cm0plus.h"
   1:Generated_Source\PSoC6\pdl\cmsis/include/core_cm0plus.h **** /**************************************************************************//**
   2:Generated_Source\PSoC6\pdl\cmsis/include/core_cm0plus.h ****  * @file     core_cm0plus.h
   3:Generated_Source\PSoC6\pdl\cmsis/include/core_cm0plus.h ****  * @brief    CMSIS Cortex-M0+ Core Peripheral Access Layer Header File
   4:Generated_Source\PSoC6\pdl\cmsis/include/core_cm0plus.h ****  * @version  V5.0.4
   5:Generated_Source\PSoC6\pdl\cmsis/include/core_cm0plus.h ****  * @date     10. January 2018
   6:Generated_Source\PSoC6\pdl\cmsis/include/core_cm0plus.h ****  ******************************************************************************/
   7:Generated_Source\PSoC6\pdl\cmsis/include/core_cm0plus.h **** /*
   8:Generated_Source\PSoC6\pdl\cmsis/include/core_cm0plus.h ****  * Copyright (c) 2009-2018 Arm Limited. All rights reserved.
   9:Generated_Source\PSoC6\pdl\cmsis/include/core_cm0plus.h ****  *
  10:Generated_Source\PSoC6\pdl\cmsis/include/core_cm0plus.h ****  * SPDX-License-Identifier: Apache-2.0
  11:Generated_Source\PSoC6\pdl\cmsis/include/core_cm0plus.h ****  *
  12:Generated_Source\PSoC6\pdl\cmsis/include/core_cm0plus.h ****  * Licensed under the Apache License, Version 2.0 (the License); you may
  13:Generated_Source\PSoC6\pdl\cmsis/include/core_cm0plus.h ****  * not use this file except in compliance with the License.
ARM GAS  C:\Users\seths\AppData\Local\Temp\ccu8EsPT.s 			page 16


  14:Generated_Source\PSoC6\pdl\cmsis/include/core_cm0plus.h ****  * You may obtain a copy of the License at
  15:Generated_Source\PSoC6\pdl\cmsis/include/core_cm0plus.h ****  *
  16:Generated_Source\PSoC6\pdl\cmsis/include/core_cm0plus.h ****  * www.apache.org/licenses/LICENSE-2.0
  17:Generated_Source\PSoC6\pdl\cmsis/include/core_cm0plus.h ****  *
  18:Generated_Source\PSoC6\pdl\cmsis/include/core_cm0plus.h ****  * Unless required by applicable law or agreed to in writing, software
  19:Generated_Source\PSoC6\pdl\cmsis/include/core_cm0plus.h ****  * distributed under the License is distributed on an AS IS BASIS, WITHOUT
  20:Generated_Source\PSoC6\pdl\cmsis/include/core_cm0plus.h ****  * WARRANTIES OR CONDITIONS OF ANY KIND, either express or implied.
  21:Generated_Source\PSoC6\pdl\cmsis/include/core_cm0plus.h ****  * See the License for the specific language governing permissions and
  22:Generated_Source\PSoC6\pdl\cmsis/include/core_cm0plus.h ****  * limitations under the License.
  23:Generated_Source\PSoC6\pdl\cmsis/include/core_cm0plus.h ****  */
  24:Generated_Source\PSoC6\pdl\cmsis/include/core_cm0plus.h **** 
  25:Generated_Source\PSoC6\pdl\cmsis/include/core_cm0plus.h **** #if   defined ( __ICCARM__ )
  26:Generated_Source\PSoC6\pdl\cmsis/include/core_cm0plus.h ****   #pragma system_include         /* treat file as system include file for MISRA check */
  27:Generated_Source\PSoC6\pdl\cmsis/include/core_cm0plus.h **** #elif defined (__clang__)
  28:Generated_Source\PSoC6\pdl\cmsis/include/core_cm0plus.h ****   #pragma clang system_header   /* treat file as system include file */
  29:Generated_Source\PSoC6\pdl\cmsis/include/core_cm0plus.h **** #endif
  30:Generated_Source\PSoC6\pdl\cmsis/include/core_cm0plus.h **** 
  31:Generated_Source\PSoC6\pdl\cmsis/include/core_cm0plus.h **** #ifndef __CORE_CM0PLUS_H_GENERIC
  32:Generated_Source\PSoC6\pdl\cmsis/include/core_cm0plus.h **** #define __CORE_CM0PLUS_H_GENERIC
  33:Generated_Source\PSoC6\pdl\cmsis/include/core_cm0plus.h **** 
  34:Generated_Source\PSoC6\pdl\cmsis/include/core_cm0plus.h **** #include <stdint.h>
  35:Generated_Source\PSoC6\pdl\cmsis/include/core_cm0plus.h **** 
  36:Generated_Source\PSoC6\pdl\cmsis/include/core_cm0plus.h **** #ifdef __cplusplus
  37:Generated_Source\PSoC6\pdl\cmsis/include/core_cm0plus.h ****  extern "C" {
  38:Generated_Source\PSoC6\pdl\cmsis/include/core_cm0plus.h **** #endif
  39:Generated_Source\PSoC6\pdl\cmsis/include/core_cm0plus.h **** 
  40:Generated_Source\PSoC6\pdl\cmsis/include/core_cm0plus.h **** /**
  41:Generated_Source\PSoC6\pdl\cmsis/include/core_cm0plus.h ****   \page CMSIS_MISRA_Exceptions  MISRA-C:2004 Compliance Exceptions
  42:Generated_Source\PSoC6\pdl\cmsis/include/core_cm0plus.h ****   CMSIS violates the following MISRA-C:2004 rules:
  43:Generated_Source\PSoC6\pdl\cmsis/include/core_cm0plus.h **** 
  44:Generated_Source\PSoC6\pdl\cmsis/include/core_cm0plus.h ****    \li Required Rule 8.5, object/function definition in header file.<br>
  45:Generated_Source\PSoC6\pdl\cmsis/include/core_cm0plus.h ****      Function definitions in header files are used to allow 'inlining'.
  46:Generated_Source\PSoC6\pdl\cmsis/include/core_cm0plus.h **** 
  47:Generated_Source\PSoC6\pdl\cmsis/include/core_cm0plus.h ****    \li Required Rule 18.4, declaration of union type or object of union type: '{...}'.<br>
  48:Generated_Source\PSoC6\pdl\cmsis/include/core_cm0plus.h ****      Unions are used for effective representation of core registers.
  49:Generated_Source\PSoC6\pdl\cmsis/include/core_cm0plus.h **** 
  50:Generated_Source\PSoC6\pdl\cmsis/include/core_cm0plus.h ****    \li Advisory Rule 19.7, Function-like macro defined.<br>
  51:Generated_Source\PSoC6\pdl\cmsis/include/core_cm0plus.h ****      Function-like macros are used to allow more efficient code.
  52:Generated_Source\PSoC6\pdl\cmsis/include/core_cm0plus.h ****  */
  53:Generated_Source\PSoC6\pdl\cmsis/include/core_cm0plus.h **** 
  54:Generated_Source\PSoC6\pdl\cmsis/include/core_cm0plus.h **** 
  55:Generated_Source\PSoC6\pdl\cmsis/include/core_cm0plus.h **** /*******************************************************************************
  56:Generated_Source\PSoC6\pdl\cmsis/include/core_cm0plus.h ****  *                 CMSIS definitions
  57:Generated_Source\PSoC6\pdl\cmsis/include/core_cm0plus.h ****  ******************************************************************************/
  58:Generated_Source\PSoC6\pdl\cmsis/include/core_cm0plus.h **** /**
  59:Generated_Source\PSoC6\pdl\cmsis/include/core_cm0plus.h ****   \ingroup Cortex-M0+
  60:Generated_Source\PSoC6\pdl\cmsis/include/core_cm0plus.h ****   @{
  61:Generated_Source\PSoC6\pdl\cmsis/include/core_cm0plus.h ****  */
  62:Generated_Source\PSoC6\pdl\cmsis/include/core_cm0plus.h **** 
  63:Generated_Source\PSoC6\pdl\cmsis/include/core_cm0plus.h **** #include "cmsis_version.h"
  64:Generated_Source\PSoC6\pdl\cmsis/include/core_cm0plus.h ****  
  65:Generated_Source\PSoC6\pdl\cmsis/include/core_cm0plus.h **** /*  CMSIS CM0+ definitions */
  66:Generated_Source\PSoC6\pdl\cmsis/include/core_cm0plus.h **** #define __CM0PLUS_CMSIS_VERSION_MAIN (__CM_CMSIS_VERSION_MAIN)                  /*!< \deprecated [3
  67:Generated_Source\PSoC6\pdl\cmsis/include/core_cm0plus.h **** #define __CM0PLUS_CMSIS_VERSION_SUB  (__CM_CMSIS_VERSION_SUB)                   /*!< \deprecated [1
  68:Generated_Source\PSoC6\pdl\cmsis/include/core_cm0plus.h **** #define __CM0PLUS_CMSIS_VERSION      ((__CM0PLUS_CMSIS_VERSION_MAIN << 16U) | \
  69:Generated_Source\PSoC6\pdl\cmsis/include/core_cm0plus.h ****                                        __CM0PLUS_CMSIS_VERSION_SUB           )  /*!< \deprecated CM
  70:Generated_Source\PSoC6\pdl\cmsis/include/core_cm0plus.h **** 
ARM GAS  C:\Users\seths\AppData\Local\Temp\ccu8EsPT.s 			page 17


  71:Generated_Source\PSoC6\pdl\cmsis/include/core_cm0plus.h **** #define __CORTEX_M                   (0U)                                       /*!< Cortex-M Core 
  72:Generated_Source\PSoC6\pdl\cmsis/include/core_cm0plus.h **** 
  73:Generated_Source\PSoC6\pdl\cmsis/include/core_cm0plus.h **** /** __FPU_USED indicates whether an FPU is used or not.
  74:Generated_Source\PSoC6\pdl\cmsis/include/core_cm0plus.h ****     This core does not support an FPU at all
  75:Generated_Source\PSoC6\pdl\cmsis/include/core_cm0plus.h **** */
  76:Generated_Source\PSoC6\pdl\cmsis/include/core_cm0plus.h **** #define __FPU_USED       0U
  77:Generated_Source\PSoC6\pdl\cmsis/include/core_cm0plus.h **** 
  78:Generated_Source\PSoC6\pdl\cmsis/include/core_cm0plus.h **** #if defined ( __CC_ARM )
  79:Generated_Source\PSoC6\pdl\cmsis/include/core_cm0plus.h ****   #if defined __TARGET_FPU_VFP
  80:Generated_Source\PSoC6\pdl\cmsis/include/core_cm0plus.h ****     #error "Compiler generates FPU instructions for a device without an FPU (check __FPU_PRESENT)"
  81:Generated_Source\PSoC6\pdl\cmsis/include/core_cm0plus.h ****   #endif
  82:Generated_Source\PSoC6\pdl\cmsis/include/core_cm0plus.h **** 
  83:Generated_Source\PSoC6\pdl\cmsis/include/core_cm0plus.h **** #elif defined (__ARMCC_VERSION) && (__ARMCC_VERSION >= 6010050)
  84:Generated_Source\PSoC6\pdl\cmsis/include/core_cm0plus.h ****   #if defined __ARM_PCS_VFP
  85:Generated_Source\PSoC6\pdl\cmsis/include/core_cm0plus.h ****     #error "Compiler generates FPU instructions for a device without an FPU (check __FPU_PRESENT)"
  86:Generated_Source\PSoC6\pdl\cmsis/include/core_cm0plus.h ****   #endif
  87:Generated_Source\PSoC6\pdl\cmsis/include/core_cm0plus.h **** 
  88:Generated_Source\PSoC6\pdl\cmsis/include/core_cm0plus.h **** #elif defined ( __GNUC__ )
  89:Generated_Source\PSoC6\pdl\cmsis/include/core_cm0plus.h ****   #if defined (__VFP_FP__) && !defined(__SOFTFP__)
  90:Generated_Source\PSoC6\pdl\cmsis/include/core_cm0plus.h ****     #error "Compiler generates FPU instructions for a device without an FPU (check __FPU_PRESENT)"
  91:Generated_Source\PSoC6\pdl\cmsis/include/core_cm0plus.h ****   #endif
  92:Generated_Source\PSoC6\pdl\cmsis/include/core_cm0plus.h **** 
  93:Generated_Source\PSoC6\pdl\cmsis/include/core_cm0plus.h **** #elif defined ( __ICCARM__ )
  94:Generated_Source\PSoC6\pdl\cmsis/include/core_cm0plus.h ****   #if defined __ARMVFP__
  95:Generated_Source\PSoC6\pdl\cmsis/include/core_cm0plus.h ****     #error "Compiler generates FPU instructions for a device without an FPU (check __FPU_PRESENT)"
  96:Generated_Source\PSoC6\pdl\cmsis/include/core_cm0plus.h ****   #endif
  97:Generated_Source\PSoC6\pdl\cmsis/include/core_cm0plus.h **** 
  98:Generated_Source\PSoC6\pdl\cmsis/include/core_cm0plus.h **** #elif defined ( __TI_ARM__ )
  99:Generated_Source\PSoC6\pdl\cmsis/include/core_cm0plus.h ****   #if defined __TI_VFP_SUPPORT__
 100:Generated_Source\PSoC6\pdl\cmsis/include/core_cm0plus.h ****     #error "Compiler generates FPU instructions for a device without an FPU (check __FPU_PRESENT)"
 101:Generated_Source\PSoC6\pdl\cmsis/include/core_cm0plus.h ****   #endif
 102:Generated_Source\PSoC6\pdl\cmsis/include/core_cm0plus.h **** 
 103:Generated_Source\PSoC6\pdl\cmsis/include/core_cm0plus.h **** #elif defined ( __TASKING__ )
 104:Generated_Source\PSoC6\pdl\cmsis/include/core_cm0plus.h ****   #if defined __FPU_VFP__
 105:Generated_Source\PSoC6\pdl\cmsis/include/core_cm0plus.h ****     #error "Compiler generates FPU instructions for a device without an FPU (check __FPU_PRESENT)"
 106:Generated_Source\PSoC6\pdl\cmsis/include/core_cm0plus.h ****   #endif
 107:Generated_Source\PSoC6\pdl\cmsis/include/core_cm0plus.h **** 
 108:Generated_Source\PSoC6\pdl\cmsis/include/core_cm0plus.h **** #elif defined ( __CSMC__ )
 109:Generated_Source\PSoC6\pdl\cmsis/include/core_cm0plus.h ****   #if ( __CSMC__ & 0x400U)
 110:Generated_Source\PSoC6\pdl\cmsis/include/core_cm0plus.h ****     #error "Compiler generates FPU instructions for a device without an FPU (check __FPU_PRESENT)"
 111:Generated_Source\PSoC6\pdl\cmsis/include/core_cm0plus.h ****   #endif
 112:Generated_Source\PSoC6\pdl\cmsis/include/core_cm0plus.h **** 
 113:Generated_Source\PSoC6\pdl\cmsis/include/core_cm0plus.h **** #endif
 114:Generated_Source\PSoC6\pdl\cmsis/include/core_cm0plus.h **** 
 115:Generated_Source\PSoC6\pdl\cmsis/include/core_cm0plus.h **** #include "cmsis_compiler.h"               /* CMSIS compiler specific defines */
 116:Generated_Source\PSoC6\pdl\cmsis/include/core_cm0plus.h **** 
 117:Generated_Source\PSoC6\pdl\cmsis/include/core_cm0plus.h **** 
 118:Generated_Source\PSoC6\pdl\cmsis/include/core_cm0plus.h **** #ifdef __cplusplus
 119:Generated_Source\PSoC6\pdl\cmsis/include/core_cm0plus.h **** }
 120:Generated_Source\PSoC6\pdl\cmsis/include/core_cm0plus.h **** #endif
 121:Generated_Source\PSoC6\pdl\cmsis/include/core_cm0plus.h **** 
 122:Generated_Source\PSoC6\pdl\cmsis/include/core_cm0plus.h **** #endif /* __CORE_CM0PLUS_H_GENERIC */
 123:Generated_Source\PSoC6\pdl\cmsis/include/core_cm0plus.h **** 
 124:Generated_Source\PSoC6\pdl\cmsis/include/core_cm0plus.h **** #ifndef __CMSIS_GENERIC
 125:Generated_Source\PSoC6\pdl\cmsis/include/core_cm0plus.h **** 
 126:Generated_Source\PSoC6\pdl\cmsis/include/core_cm0plus.h **** #ifndef __CORE_CM0PLUS_H_DEPENDANT
 127:Generated_Source\PSoC6\pdl\cmsis/include/core_cm0plus.h **** #define __CORE_CM0PLUS_H_DEPENDANT
ARM GAS  C:\Users\seths\AppData\Local\Temp\ccu8EsPT.s 			page 18


 128:Generated_Source\PSoC6\pdl\cmsis/include/core_cm0plus.h **** 
 129:Generated_Source\PSoC6\pdl\cmsis/include/core_cm0plus.h **** #ifdef __cplusplus
 130:Generated_Source\PSoC6\pdl\cmsis/include/core_cm0plus.h ****  extern "C" {
 131:Generated_Source\PSoC6\pdl\cmsis/include/core_cm0plus.h **** #endif
 132:Generated_Source\PSoC6\pdl\cmsis/include/core_cm0plus.h **** 
 133:Generated_Source\PSoC6\pdl\cmsis/include/core_cm0plus.h **** /* check device defines and use defaults */
 134:Generated_Source\PSoC6\pdl\cmsis/include/core_cm0plus.h **** #if defined __CHECK_DEVICE_DEFINES
 135:Generated_Source\PSoC6\pdl\cmsis/include/core_cm0plus.h ****   #ifndef __CM0PLUS_REV
 136:Generated_Source\PSoC6\pdl\cmsis/include/core_cm0plus.h ****     #define __CM0PLUS_REV             0x0000U
 137:Generated_Source\PSoC6\pdl\cmsis/include/core_cm0plus.h ****     #warning "__CM0PLUS_REV not defined in device header file; using default!"
 138:Generated_Source\PSoC6\pdl\cmsis/include/core_cm0plus.h ****   #endif
 139:Generated_Source\PSoC6\pdl\cmsis/include/core_cm0plus.h **** 
 140:Generated_Source\PSoC6\pdl\cmsis/include/core_cm0plus.h ****   #ifndef __MPU_PRESENT
 141:Generated_Source\PSoC6\pdl\cmsis/include/core_cm0plus.h ****     #define __MPU_PRESENT             0U
 142:Generated_Source\PSoC6\pdl\cmsis/include/core_cm0plus.h ****     #warning "__MPU_PRESENT not defined in device header file; using default!"
 143:Generated_Source\PSoC6\pdl\cmsis/include/core_cm0plus.h ****   #endif
 144:Generated_Source\PSoC6\pdl\cmsis/include/core_cm0plus.h **** 
 145:Generated_Source\PSoC6\pdl\cmsis/include/core_cm0plus.h ****   #ifndef __VTOR_PRESENT
 146:Generated_Source\PSoC6\pdl\cmsis/include/core_cm0plus.h ****     #define __VTOR_PRESENT            0U
 147:Generated_Source\PSoC6\pdl\cmsis/include/core_cm0plus.h ****     #warning "__VTOR_PRESENT not defined in device header file; using default!"
 148:Generated_Source\PSoC6\pdl\cmsis/include/core_cm0plus.h ****   #endif
 149:Generated_Source\PSoC6\pdl\cmsis/include/core_cm0plus.h **** 
 150:Generated_Source\PSoC6\pdl\cmsis/include/core_cm0plus.h ****   #ifndef __NVIC_PRIO_BITS
 151:Generated_Source\PSoC6\pdl\cmsis/include/core_cm0plus.h ****     #define __NVIC_PRIO_BITS          2U
 152:Generated_Source\PSoC6\pdl\cmsis/include/core_cm0plus.h ****     #warning "__NVIC_PRIO_BITS not defined in device header file; using default!"
 153:Generated_Source\PSoC6\pdl\cmsis/include/core_cm0plus.h ****   #endif
 154:Generated_Source\PSoC6\pdl\cmsis/include/core_cm0plus.h **** 
 155:Generated_Source\PSoC6\pdl\cmsis/include/core_cm0plus.h ****   #ifndef __Vendor_SysTickConfig
 156:Generated_Source\PSoC6\pdl\cmsis/include/core_cm0plus.h ****     #define __Vendor_SysTickConfig    0U
 157:Generated_Source\PSoC6\pdl\cmsis/include/core_cm0plus.h ****     #warning "__Vendor_SysTickConfig not defined in device header file; using default!"
 158:Generated_Source\PSoC6\pdl\cmsis/include/core_cm0plus.h ****   #endif
 159:Generated_Source\PSoC6\pdl\cmsis/include/core_cm0plus.h **** #endif
 160:Generated_Source\PSoC6\pdl\cmsis/include/core_cm0plus.h **** 
 161:Generated_Source\PSoC6\pdl\cmsis/include/core_cm0plus.h **** /* IO definitions (access restrictions to peripheral registers) */
 162:Generated_Source\PSoC6\pdl\cmsis/include/core_cm0plus.h **** /**
 163:Generated_Source\PSoC6\pdl\cmsis/include/core_cm0plus.h ****     \defgroup CMSIS_glob_defs CMSIS Global Defines
 164:Generated_Source\PSoC6\pdl\cmsis/include/core_cm0plus.h **** 
 165:Generated_Source\PSoC6\pdl\cmsis/include/core_cm0plus.h ****     <strong>IO Type Qualifiers</strong> are used
 166:Generated_Source\PSoC6\pdl\cmsis/include/core_cm0plus.h ****     \li to specify the access to peripheral variables.
 167:Generated_Source\PSoC6\pdl\cmsis/include/core_cm0plus.h ****     \li for automatic generation of peripheral register debug information.
 168:Generated_Source\PSoC6\pdl\cmsis/include/core_cm0plus.h **** */
 169:Generated_Source\PSoC6\pdl\cmsis/include/core_cm0plus.h **** #ifdef __cplusplus
 170:Generated_Source\PSoC6\pdl\cmsis/include/core_cm0plus.h ****   #define   __I     volatile             /*!< Defines 'read only' permissions */
 171:Generated_Source\PSoC6\pdl\cmsis/include/core_cm0plus.h **** #else
 172:Generated_Source\PSoC6\pdl\cmsis/include/core_cm0plus.h ****   #define   __I     volatile const       /*!< Defines 'read only' permissions */
 173:Generated_Source\PSoC6\pdl\cmsis/include/core_cm0plus.h **** #endif
 174:Generated_Source\PSoC6\pdl\cmsis/include/core_cm0plus.h **** #define     __O     volatile             /*!< Defines 'write only' permissions */
 175:Generated_Source\PSoC6\pdl\cmsis/include/core_cm0plus.h **** #define     __IO    volatile             /*!< Defines 'read / write' permissions */
 176:Generated_Source\PSoC6\pdl\cmsis/include/core_cm0plus.h **** 
 177:Generated_Source\PSoC6\pdl\cmsis/include/core_cm0plus.h **** /* following defines should be used for structure members */
 178:Generated_Source\PSoC6\pdl\cmsis/include/core_cm0plus.h **** #define     __IM     volatile const      /*! Defines 'read only' structure member permissions */
 179:Generated_Source\PSoC6\pdl\cmsis/include/core_cm0plus.h **** #define     __OM     volatile            /*! Defines 'write only' structure member permissions */
 180:Generated_Source\PSoC6\pdl\cmsis/include/core_cm0plus.h **** #define     __IOM    volatile            /*! Defines 'read / write' structure member permissions */
 181:Generated_Source\PSoC6\pdl\cmsis/include/core_cm0plus.h **** 
 182:Generated_Source\PSoC6\pdl\cmsis/include/core_cm0plus.h **** /*@} end of group Cortex-M0+ */
 183:Generated_Source\PSoC6\pdl\cmsis/include/core_cm0plus.h **** 
 184:Generated_Source\PSoC6\pdl\cmsis/include/core_cm0plus.h **** 
ARM GAS  C:\Users\seths\AppData\Local\Temp\ccu8EsPT.s 			page 19


 185:Generated_Source\PSoC6\pdl\cmsis/include/core_cm0plus.h **** 
 186:Generated_Source\PSoC6\pdl\cmsis/include/core_cm0plus.h **** /*******************************************************************************
 187:Generated_Source\PSoC6\pdl\cmsis/include/core_cm0plus.h ****  *                 Register Abstraction
 188:Generated_Source\PSoC6\pdl\cmsis/include/core_cm0plus.h ****   Core Register contain:
 189:Generated_Source\PSoC6\pdl\cmsis/include/core_cm0plus.h ****   - Core Register
 190:Generated_Source\PSoC6\pdl\cmsis/include/core_cm0plus.h ****   - Core NVIC Register
 191:Generated_Source\PSoC6\pdl\cmsis/include/core_cm0plus.h ****   - Core SCB Register
 192:Generated_Source\PSoC6\pdl\cmsis/include/core_cm0plus.h ****   - Core SysTick Register
 193:Generated_Source\PSoC6\pdl\cmsis/include/core_cm0plus.h ****   - Core MPU Register
 194:Generated_Source\PSoC6\pdl\cmsis/include/core_cm0plus.h ****  ******************************************************************************/
 195:Generated_Source\PSoC6\pdl\cmsis/include/core_cm0plus.h **** /**
 196:Generated_Source\PSoC6\pdl\cmsis/include/core_cm0plus.h ****   \defgroup CMSIS_core_register Defines and Type Definitions
 197:Generated_Source\PSoC6\pdl\cmsis/include/core_cm0plus.h ****   \brief Type definitions and defines for Cortex-M processor based devices.
 198:Generated_Source\PSoC6\pdl\cmsis/include/core_cm0plus.h **** */
 199:Generated_Source\PSoC6\pdl\cmsis/include/core_cm0plus.h **** 
 200:Generated_Source\PSoC6\pdl\cmsis/include/core_cm0plus.h **** /**
 201:Generated_Source\PSoC6\pdl\cmsis/include/core_cm0plus.h ****   \ingroup    CMSIS_core_register
 202:Generated_Source\PSoC6\pdl\cmsis/include/core_cm0plus.h ****   \defgroup   CMSIS_CORE  Status and Control Registers
 203:Generated_Source\PSoC6\pdl\cmsis/include/core_cm0plus.h ****   \brief      Core Register type definitions.
 204:Generated_Source\PSoC6\pdl\cmsis/include/core_cm0plus.h ****   @{
 205:Generated_Source\PSoC6\pdl\cmsis/include/core_cm0plus.h ****  */
 206:Generated_Source\PSoC6\pdl\cmsis/include/core_cm0plus.h **** 
 207:Generated_Source\PSoC6\pdl\cmsis/include/core_cm0plus.h **** /**
 208:Generated_Source\PSoC6\pdl\cmsis/include/core_cm0plus.h ****   \brief  Union type to access the Application Program Status Register (APSR).
 209:Generated_Source\PSoC6\pdl\cmsis/include/core_cm0plus.h ****  */
 210:Generated_Source\PSoC6\pdl\cmsis/include/core_cm0plus.h **** typedef union
 211:Generated_Source\PSoC6\pdl\cmsis/include/core_cm0plus.h **** {
 212:Generated_Source\PSoC6\pdl\cmsis/include/core_cm0plus.h ****   struct
 213:Generated_Source\PSoC6\pdl\cmsis/include/core_cm0plus.h ****   {
 214:Generated_Source\PSoC6\pdl\cmsis/include/core_cm0plus.h ****     uint32_t _reserved0:28;              /*!< bit:  0..27  Reserved */
 215:Generated_Source\PSoC6\pdl\cmsis/include/core_cm0plus.h ****     uint32_t V:1;                        /*!< bit:     28  Overflow condition code flag */
 216:Generated_Source\PSoC6\pdl\cmsis/include/core_cm0plus.h ****     uint32_t C:1;                        /*!< bit:     29  Carry condition code flag */
 217:Generated_Source\PSoC6\pdl\cmsis/include/core_cm0plus.h ****     uint32_t Z:1;                        /*!< bit:     30  Zero condition code flag */
 218:Generated_Source\PSoC6\pdl\cmsis/include/core_cm0plus.h ****     uint32_t N:1;                        /*!< bit:     31  Negative condition code flag */
 219:Generated_Source\PSoC6\pdl\cmsis/include/core_cm0plus.h ****   } b;                                   /*!< Structure used for bit  access */
 220:Generated_Source\PSoC6\pdl\cmsis/include/core_cm0plus.h ****   uint32_t w;                            /*!< Type      used for word access */
 221:Generated_Source\PSoC6\pdl\cmsis/include/core_cm0plus.h **** } APSR_Type;
 222:Generated_Source\PSoC6\pdl\cmsis/include/core_cm0plus.h **** 
 223:Generated_Source\PSoC6\pdl\cmsis/include/core_cm0plus.h **** /* APSR Register Definitions */
 224:Generated_Source\PSoC6\pdl\cmsis/include/core_cm0plus.h **** #define APSR_N_Pos                         31U                                            /*!< APSR
 225:Generated_Source\PSoC6\pdl\cmsis/include/core_cm0plus.h **** #define APSR_N_Msk                         (1UL << APSR_N_Pos)                            /*!< APSR
 226:Generated_Source\PSoC6\pdl\cmsis/include/core_cm0plus.h **** 
 227:Generated_Source\PSoC6\pdl\cmsis/include/core_cm0plus.h **** #define APSR_Z_Pos                         30U                                            /*!< APSR
 228:Generated_Source\PSoC6\pdl\cmsis/include/core_cm0plus.h **** #define APSR_Z_Msk                         (1UL << APSR_Z_Pos)                            /*!< APSR
 229:Generated_Source\PSoC6\pdl\cmsis/include/core_cm0plus.h **** 
 230:Generated_Source\PSoC6\pdl\cmsis/include/core_cm0plus.h **** #define APSR_C_Pos                         29U                                            /*!< APSR
 231:Generated_Source\PSoC6\pdl\cmsis/include/core_cm0plus.h **** #define APSR_C_Msk                         (1UL << APSR_C_Pos)                            /*!< APSR
 232:Generated_Source\PSoC6\pdl\cmsis/include/core_cm0plus.h **** 
 233:Generated_Source\PSoC6\pdl\cmsis/include/core_cm0plus.h **** #define APSR_V_Pos                         28U                                            /*!< APSR
 234:Generated_Source\PSoC6\pdl\cmsis/include/core_cm0plus.h **** #define APSR_V_Msk                         (1UL << APSR_V_Pos)                            /*!< APSR
 235:Generated_Source\PSoC6\pdl\cmsis/include/core_cm0plus.h **** 
 236:Generated_Source\PSoC6\pdl\cmsis/include/core_cm0plus.h **** 
 237:Generated_Source\PSoC6\pdl\cmsis/include/core_cm0plus.h **** /**
 238:Generated_Source\PSoC6\pdl\cmsis/include/core_cm0plus.h ****   \brief  Union type to access the Interrupt Program Status Register (IPSR).
 239:Generated_Source\PSoC6\pdl\cmsis/include/core_cm0plus.h ****  */
 240:Generated_Source\PSoC6\pdl\cmsis/include/core_cm0plus.h **** typedef union
 241:Generated_Source\PSoC6\pdl\cmsis/include/core_cm0plus.h **** {
ARM GAS  C:\Users\seths\AppData\Local\Temp\ccu8EsPT.s 			page 20


 242:Generated_Source\PSoC6\pdl\cmsis/include/core_cm0plus.h ****   struct
 243:Generated_Source\PSoC6\pdl\cmsis/include/core_cm0plus.h ****   {
 244:Generated_Source\PSoC6\pdl\cmsis/include/core_cm0plus.h ****     uint32_t ISR:9;                      /*!< bit:  0.. 8  Exception number */
 245:Generated_Source\PSoC6\pdl\cmsis/include/core_cm0plus.h ****     uint32_t _reserved0:23;              /*!< bit:  9..31  Reserved */
 246:Generated_Source\PSoC6\pdl\cmsis/include/core_cm0plus.h ****   } b;                                   /*!< Structure used for bit  access */
 247:Generated_Source\PSoC6\pdl\cmsis/include/core_cm0plus.h ****   uint32_t w;                            /*!< Type      used for word access */
 248:Generated_Source\PSoC6\pdl\cmsis/include/core_cm0plus.h **** } IPSR_Type;
 249:Generated_Source\PSoC6\pdl\cmsis/include/core_cm0plus.h **** 
 250:Generated_Source\PSoC6\pdl\cmsis/include/core_cm0plus.h **** /* IPSR Register Definitions */
 251:Generated_Source\PSoC6\pdl\cmsis/include/core_cm0plus.h **** #define IPSR_ISR_Pos                        0U                                            /*!< IPSR
 252:Generated_Source\PSoC6\pdl\cmsis/include/core_cm0plus.h **** #define IPSR_ISR_Msk                       (0x1FFUL /*<< IPSR_ISR_Pos*/)                  /*!< IPSR
 253:Generated_Source\PSoC6\pdl\cmsis/include/core_cm0plus.h **** 
 254:Generated_Source\PSoC6\pdl\cmsis/include/core_cm0plus.h **** 
 255:Generated_Source\PSoC6\pdl\cmsis/include/core_cm0plus.h **** /**
 256:Generated_Source\PSoC6\pdl\cmsis/include/core_cm0plus.h ****   \brief  Union type to access the Special-Purpose Program Status Registers (xPSR).
 257:Generated_Source\PSoC6\pdl\cmsis/include/core_cm0plus.h ****  */
 258:Generated_Source\PSoC6\pdl\cmsis/include/core_cm0plus.h **** typedef union
 259:Generated_Source\PSoC6\pdl\cmsis/include/core_cm0plus.h **** {
 260:Generated_Source\PSoC6\pdl\cmsis/include/core_cm0plus.h ****   struct
 261:Generated_Source\PSoC6\pdl\cmsis/include/core_cm0plus.h ****   {
 262:Generated_Source\PSoC6\pdl\cmsis/include/core_cm0plus.h ****     uint32_t ISR:9;                      /*!< bit:  0.. 8  Exception number */
 263:Generated_Source\PSoC6\pdl\cmsis/include/core_cm0plus.h ****     uint32_t _reserved0:15;              /*!< bit:  9..23  Reserved */
 264:Generated_Source\PSoC6\pdl\cmsis/include/core_cm0plus.h ****     uint32_t T:1;                        /*!< bit:     24  Thumb bit        (read 0) */
 265:Generated_Source\PSoC6\pdl\cmsis/include/core_cm0plus.h ****     uint32_t _reserved1:3;               /*!< bit: 25..27  Reserved */
 266:Generated_Source\PSoC6\pdl\cmsis/include/core_cm0plus.h ****     uint32_t V:1;                        /*!< bit:     28  Overflow condition code flag */
 267:Generated_Source\PSoC6\pdl\cmsis/include/core_cm0plus.h ****     uint32_t C:1;                        /*!< bit:     29  Carry condition code flag */
 268:Generated_Source\PSoC6\pdl\cmsis/include/core_cm0plus.h ****     uint32_t Z:1;                        /*!< bit:     30  Zero condition code flag */
 269:Generated_Source\PSoC6\pdl\cmsis/include/core_cm0plus.h ****     uint32_t N:1;                        /*!< bit:     31  Negative condition code flag */
 270:Generated_Source\PSoC6\pdl\cmsis/include/core_cm0plus.h ****   } b;                                   /*!< Structure used for bit  access */
 271:Generated_Source\PSoC6\pdl\cmsis/include/core_cm0plus.h ****   uint32_t w;                            /*!< Type      used for word access */
 272:Generated_Source\PSoC6\pdl\cmsis/include/core_cm0plus.h **** } xPSR_Type;
 273:Generated_Source\PSoC6\pdl\cmsis/include/core_cm0plus.h **** 
 274:Generated_Source\PSoC6\pdl\cmsis/include/core_cm0plus.h **** /* xPSR Register Definitions */
 275:Generated_Source\PSoC6\pdl\cmsis/include/core_cm0plus.h **** #define xPSR_N_Pos                         31U                                            /*!< xPSR
 276:Generated_Source\PSoC6\pdl\cmsis/include/core_cm0plus.h **** #define xPSR_N_Msk                         (1UL << xPSR_N_Pos)                            /*!< xPSR
 277:Generated_Source\PSoC6\pdl\cmsis/include/core_cm0plus.h **** 
 278:Generated_Source\PSoC6\pdl\cmsis/include/core_cm0plus.h **** #define xPSR_Z_Pos                         30U                                            /*!< xPSR
 279:Generated_Source\PSoC6\pdl\cmsis/include/core_cm0plus.h **** #define xPSR_Z_Msk                         (1UL << xPSR_Z_Pos)                            /*!< xPSR
 280:Generated_Source\PSoC6\pdl\cmsis/include/core_cm0plus.h **** 
 281:Generated_Source\PSoC6\pdl\cmsis/include/core_cm0plus.h **** #define xPSR_C_Pos                         29U                                            /*!< xPSR
 282:Generated_Source\PSoC6\pdl\cmsis/include/core_cm0plus.h **** #define xPSR_C_Msk                         (1UL << xPSR_C_Pos)                            /*!< xPSR
 283:Generated_Source\PSoC6\pdl\cmsis/include/core_cm0plus.h **** 
 284:Generated_Source\PSoC6\pdl\cmsis/include/core_cm0plus.h **** #define xPSR_V_Pos                         28U                                            /*!< xPSR
 285:Generated_Source\PSoC6\pdl\cmsis/include/core_cm0plus.h **** #define xPSR_V_Msk                         (1UL << xPSR_V_Pos)                            /*!< xPSR
 286:Generated_Source\PSoC6\pdl\cmsis/include/core_cm0plus.h **** 
 287:Generated_Source\PSoC6\pdl\cmsis/include/core_cm0plus.h **** #define xPSR_T_Pos                         24U                                            /*!< xPSR
 288:Generated_Source\PSoC6\pdl\cmsis/include/core_cm0plus.h **** #define xPSR_T_Msk                         (1UL << xPSR_T_Pos)                            /*!< xPSR
 289:Generated_Source\PSoC6\pdl\cmsis/include/core_cm0plus.h **** 
 290:Generated_Source\PSoC6\pdl\cmsis/include/core_cm0plus.h **** #define xPSR_ISR_Pos                        0U                                            /*!< xPSR
 291:Generated_Source\PSoC6\pdl\cmsis/include/core_cm0plus.h **** #define xPSR_ISR_Msk                       (0x1FFUL /*<< xPSR_ISR_Pos*/)                  /*!< xPSR
 292:Generated_Source\PSoC6\pdl\cmsis/include/core_cm0plus.h **** 
 293:Generated_Source\PSoC6\pdl\cmsis/include/core_cm0plus.h **** 
 294:Generated_Source\PSoC6\pdl\cmsis/include/core_cm0plus.h **** /**
 295:Generated_Source\PSoC6\pdl\cmsis/include/core_cm0plus.h ****   \brief  Union type to access the Control Registers (CONTROL).
 296:Generated_Source\PSoC6\pdl\cmsis/include/core_cm0plus.h ****  */
 297:Generated_Source\PSoC6\pdl\cmsis/include/core_cm0plus.h **** typedef union
 298:Generated_Source\PSoC6\pdl\cmsis/include/core_cm0plus.h **** {
ARM GAS  C:\Users\seths\AppData\Local\Temp\ccu8EsPT.s 			page 21


 299:Generated_Source\PSoC6\pdl\cmsis/include/core_cm0plus.h ****   struct
 300:Generated_Source\PSoC6\pdl\cmsis/include/core_cm0plus.h ****   {
 301:Generated_Source\PSoC6\pdl\cmsis/include/core_cm0plus.h ****     uint32_t nPRIV:1;                    /*!< bit:      0  Execution privilege in Thread mode */
 302:Generated_Source\PSoC6\pdl\cmsis/include/core_cm0plus.h ****     uint32_t SPSEL:1;                    /*!< bit:      1  Stack to be used */
 303:Generated_Source\PSoC6\pdl\cmsis/include/core_cm0plus.h ****     uint32_t _reserved1:30;              /*!< bit:  2..31  Reserved */
 304:Generated_Source\PSoC6\pdl\cmsis/include/core_cm0plus.h ****   } b;                                   /*!< Structure used for bit  access */
 305:Generated_Source\PSoC6\pdl\cmsis/include/core_cm0plus.h ****   uint32_t w;                            /*!< Type      used for word access */
 306:Generated_Source\PSoC6\pdl\cmsis/include/core_cm0plus.h **** } CONTROL_Type;
 307:Generated_Source\PSoC6\pdl\cmsis/include/core_cm0plus.h **** 
 308:Generated_Source\PSoC6\pdl\cmsis/include/core_cm0plus.h **** /* CONTROL Register Definitions */
 309:Generated_Source\PSoC6\pdl\cmsis/include/core_cm0plus.h **** #define CONTROL_SPSEL_Pos                   1U                                            /*!< CONT
 310:Generated_Source\PSoC6\pdl\cmsis/include/core_cm0plus.h **** #define CONTROL_SPSEL_Msk                  (1UL << CONTROL_SPSEL_Pos)                     /*!< CONT
 311:Generated_Source\PSoC6\pdl\cmsis/include/core_cm0plus.h **** 
 312:Generated_Source\PSoC6\pdl\cmsis/include/core_cm0plus.h **** #define CONTROL_nPRIV_Pos                   0U                                            /*!< CONT
 313:Generated_Source\PSoC6\pdl\cmsis/include/core_cm0plus.h **** #define CONTROL_nPRIV_Msk                  (1UL /*<< CONTROL_nPRIV_Pos*/)                 /*!< CONT
 314:Generated_Source\PSoC6\pdl\cmsis/include/core_cm0plus.h **** 
 315:Generated_Source\PSoC6\pdl\cmsis/include/core_cm0plus.h **** /*@} end of group CMSIS_CORE */
 316:Generated_Source\PSoC6\pdl\cmsis/include/core_cm0plus.h **** 
 317:Generated_Source\PSoC6\pdl\cmsis/include/core_cm0plus.h **** 
 318:Generated_Source\PSoC6\pdl\cmsis/include/core_cm0plus.h **** /**
 319:Generated_Source\PSoC6\pdl\cmsis/include/core_cm0plus.h ****   \ingroup    CMSIS_core_register
 320:Generated_Source\PSoC6\pdl\cmsis/include/core_cm0plus.h ****   \defgroup   CMSIS_NVIC  Nested Vectored Interrupt Controller (NVIC)
 321:Generated_Source\PSoC6\pdl\cmsis/include/core_cm0plus.h ****   \brief      Type definitions for the NVIC Registers
 322:Generated_Source\PSoC6\pdl\cmsis/include/core_cm0plus.h ****   @{
 323:Generated_Source\PSoC6\pdl\cmsis/include/core_cm0plus.h ****  */
 324:Generated_Source\PSoC6\pdl\cmsis/include/core_cm0plus.h **** 
 325:Generated_Source\PSoC6\pdl\cmsis/include/core_cm0plus.h **** /**
 326:Generated_Source\PSoC6\pdl\cmsis/include/core_cm0plus.h ****   \brief  Structure type to access the Nested Vectored Interrupt Controller (NVIC).
 327:Generated_Source\PSoC6\pdl\cmsis/include/core_cm0plus.h ****  */
 328:Generated_Source\PSoC6\pdl\cmsis/include/core_cm0plus.h **** typedef struct
 329:Generated_Source\PSoC6\pdl\cmsis/include/core_cm0plus.h **** {
 330:Generated_Source\PSoC6\pdl\cmsis/include/core_cm0plus.h ****   __IOM uint32_t ISER[1U];               /*!< Offset: 0x000 (R/W)  Interrupt Set Enable Register */
 331:Generated_Source\PSoC6\pdl\cmsis/include/core_cm0plus.h ****         uint32_t RESERVED0[31U];
 332:Generated_Source\PSoC6\pdl\cmsis/include/core_cm0plus.h ****   __IOM uint32_t ICER[1U];               /*!< Offset: 0x080 (R/W)  Interrupt Clear Enable Register 
 333:Generated_Source\PSoC6\pdl\cmsis/include/core_cm0plus.h ****         uint32_t RSERVED1[31U];
 334:Generated_Source\PSoC6\pdl\cmsis/include/core_cm0plus.h ****   __IOM uint32_t ISPR[1U];               /*!< Offset: 0x100 (R/W)  Interrupt Set Pending Register *
 335:Generated_Source\PSoC6\pdl\cmsis/include/core_cm0plus.h ****         uint32_t RESERVED2[31U];
 336:Generated_Source\PSoC6\pdl\cmsis/include/core_cm0plus.h ****   __IOM uint32_t ICPR[1U];               /*!< Offset: 0x180 (R/W)  Interrupt Clear Pending Register
 337:Generated_Source\PSoC6\pdl\cmsis/include/core_cm0plus.h ****         uint32_t RESERVED3[31U];
 338:Generated_Source\PSoC6\pdl\cmsis/include/core_cm0plus.h ****         uint32_t RESERVED4[64U];
 339:Generated_Source\PSoC6\pdl\cmsis/include/core_cm0plus.h ****   __IOM uint32_t IP[8U];                 /*!< Offset: 0x300 (R/W)  Interrupt Priority Register */
 340:Generated_Source\PSoC6\pdl\cmsis/include/core_cm0plus.h **** }  NVIC_Type;
 341:Generated_Source\PSoC6\pdl\cmsis/include/core_cm0plus.h **** 
 342:Generated_Source\PSoC6\pdl\cmsis/include/core_cm0plus.h **** /*@} end of group CMSIS_NVIC */
 343:Generated_Source\PSoC6\pdl\cmsis/include/core_cm0plus.h **** 
 344:Generated_Source\PSoC6\pdl\cmsis/include/core_cm0plus.h **** 
 345:Generated_Source\PSoC6\pdl\cmsis/include/core_cm0plus.h **** /**
 346:Generated_Source\PSoC6\pdl\cmsis/include/core_cm0plus.h ****   \ingroup  CMSIS_core_register
 347:Generated_Source\PSoC6\pdl\cmsis/include/core_cm0plus.h ****   \defgroup CMSIS_SCB     System Control Block (SCB)
 348:Generated_Source\PSoC6\pdl\cmsis/include/core_cm0plus.h ****   \brief    Type definitions for the System Control Block Registers
 349:Generated_Source\PSoC6\pdl\cmsis/include/core_cm0plus.h ****   @{
 350:Generated_Source\PSoC6\pdl\cmsis/include/core_cm0plus.h ****  */
 351:Generated_Source\PSoC6\pdl\cmsis/include/core_cm0plus.h **** 
 352:Generated_Source\PSoC6\pdl\cmsis/include/core_cm0plus.h **** /**
 353:Generated_Source\PSoC6\pdl\cmsis/include/core_cm0plus.h ****   \brief  Structure type to access the System Control Block (SCB).
 354:Generated_Source\PSoC6\pdl\cmsis/include/core_cm0plus.h ****  */
 355:Generated_Source\PSoC6\pdl\cmsis/include/core_cm0plus.h **** typedef struct
ARM GAS  C:\Users\seths\AppData\Local\Temp\ccu8EsPT.s 			page 22


 356:Generated_Source\PSoC6\pdl\cmsis/include/core_cm0plus.h **** {
 357:Generated_Source\PSoC6\pdl\cmsis/include/core_cm0plus.h ****   __IM  uint32_t CPUID;                  /*!< Offset: 0x000 (R/ )  CPUID Base Register */
 358:Generated_Source\PSoC6\pdl\cmsis/include/core_cm0plus.h ****   __IOM uint32_t ICSR;                   /*!< Offset: 0x004 (R/W)  Interrupt Control and State Regi
 359:Generated_Source\PSoC6\pdl\cmsis/include/core_cm0plus.h **** #if defined (__VTOR_PRESENT) && (__VTOR_PRESENT == 1U)
 360:Generated_Source\PSoC6\pdl\cmsis/include/core_cm0plus.h ****   __IOM uint32_t VTOR;                   /*!< Offset: 0x008 (R/W)  Vector Table Offset Register */
 361:Generated_Source\PSoC6\pdl\cmsis/include/core_cm0plus.h **** #else
 362:Generated_Source\PSoC6\pdl\cmsis/include/core_cm0plus.h ****         uint32_t RESERVED0;
 363:Generated_Source\PSoC6\pdl\cmsis/include/core_cm0plus.h **** #endif
 364:Generated_Source\PSoC6\pdl\cmsis/include/core_cm0plus.h ****   __IOM uint32_t AIRCR;                  /*!< Offset: 0x00C (R/W)  Application Interrupt and Reset 
 365:Generated_Source\PSoC6\pdl\cmsis/include/core_cm0plus.h ****   __IOM uint32_t SCR;                    /*!< Offset: 0x010 (R/W)  System Control Register */
 366:Generated_Source\PSoC6\pdl\cmsis/include/core_cm0plus.h ****   __IOM uint32_t CCR;                    /*!< Offset: 0x014 (R/W)  Configuration Control Register *
 367:Generated_Source\PSoC6\pdl\cmsis/include/core_cm0plus.h ****         uint32_t RESERVED1;
 368:Generated_Source\PSoC6\pdl\cmsis/include/core_cm0plus.h ****   __IOM uint32_t SHP[2U];                /*!< Offset: 0x01C (R/W)  System Handlers Priority Registe
 369:Generated_Source\PSoC6\pdl\cmsis/include/core_cm0plus.h ****   __IOM uint32_t SHCSR;                  /*!< Offset: 0x024 (R/W)  System Handler Control and State
 370:Generated_Source\PSoC6\pdl\cmsis/include/core_cm0plus.h **** } SCB_Type;
 371:Generated_Source\PSoC6\pdl\cmsis/include/core_cm0plus.h **** 
 372:Generated_Source\PSoC6\pdl\cmsis/include/core_cm0plus.h **** /* SCB CPUID Register Definitions */
 373:Generated_Source\PSoC6\pdl\cmsis/include/core_cm0plus.h **** #define SCB_CPUID_IMPLEMENTER_Pos          24U                                            /*!< SCB 
 374:Generated_Source\PSoC6\pdl\cmsis/include/core_cm0plus.h **** #define SCB_CPUID_IMPLEMENTER_Msk          (0xFFUL << SCB_CPUID_IMPLEMENTER_Pos)          /*!< SCB 
 375:Generated_Source\PSoC6\pdl\cmsis/include/core_cm0plus.h **** 
 376:Generated_Source\PSoC6\pdl\cmsis/include/core_cm0plus.h **** #define SCB_CPUID_VARIANT_Pos              20U                                            /*!< SCB 
 377:Generated_Source\PSoC6\pdl\cmsis/include/core_cm0plus.h **** #define SCB_CPUID_VARIANT_Msk              (0xFUL << SCB_CPUID_VARIANT_Pos)               /*!< SCB 
 378:Generated_Source\PSoC6\pdl\cmsis/include/core_cm0plus.h **** 
 379:Generated_Source\PSoC6\pdl\cmsis/include/core_cm0plus.h **** #define SCB_CPUID_ARCHITECTURE_Pos         16U                                            /*!< SCB 
 380:Generated_Source\PSoC6\pdl\cmsis/include/core_cm0plus.h **** #define SCB_CPUID_ARCHITECTURE_Msk         (0xFUL << SCB_CPUID_ARCHITECTURE_Pos)          /*!< SCB 
 381:Generated_Source\PSoC6\pdl\cmsis/include/core_cm0plus.h **** 
 382:Generated_Source\PSoC6\pdl\cmsis/include/core_cm0plus.h **** #define SCB_CPUID_PARTNO_Pos                4U                                            /*!< SCB 
 383:Generated_Source\PSoC6\pdl\cmsis/include/core_cm0plus.h **** #define SCB_CPUID_PARTNO_Msk               (0xFFFUL << SCB_CPUID_PARTNO_Pos)              /*!< SCB 
 384:Generated_Source\PSoC6\pdl\cmsis/include/core_cm0plus.h **** 
 385:Generated_Source\PSoC6\pdl\cmsis/include/core_cm0plus.h **** #define SCB_CPUID_REVISION_Pos              0U                                            /*!< SCB 
 386:Generated_Source\PSoC6\pdl\cmsis/include/core_cm0plus.h **** #define SCB_CPUID_REVISION_Msk             (0xFUL /*<< SCB_CPUID_REVISION_Pos*/)          /*!< SCB 
 387:Generated_Source\PSoC6\pdl\cmsis/include/core_cm0plus.h **** 
 388:Generated_Source\PSoC6\pdl\cmsis/include/core_cm0plus.h **** /* SCB Interrupt Control State Register Definitions */
 389:Generated_Source\PSoC6\pdl\cmsis/include/core_cm0plus.h **** #define SCB_ICSR_NMIPENDSET_Pos            31U                                            /*!< SCB 
 390:Generated_Source\PSoC6\pdl\cmsis/include/core_cm0plus.h **** #define SCB_ICSR_NMIPENDSET_Msk            (1UL << SCB_ICSR_NMIPENDSET_Pos)               /*!< SCB 
 391:Generated_Source\PSoC6\pdl\cmsis/include/core_cm0plus.h **** 
 392:Generated_Source\PSoC6\pdl\cmsis/include/core_cm0plus.h **** #define SCB_ICSR_PENDSVSET_Pos             28U                                            /*!< SCB 
 393:Generated_Source\PSoC6\pdl\cmsis/include/core_cm0plus.h **** #define SCB_ICSR_PENDSVSET_Msk             (1UL << SCB_ICSR_PENDSVSET_Pos)                /*!< SCB 
 394:Generated_Source\PSoC6\pdl\cmsis/include/core_cm0plus.h **** 
 395:Generated_Source\PSoC6\pdl\cmsis/include/core_cm0plus.h **** #define SCB_ICSR_PENDSVCLR_Pos             27U                                            /*!< SCB 
 396:Generated_Source\PSoC6\pdl\cmsis/include/core_cm0plus.h **** #define SCB_ICSR_PENDSVCLR_Msk             (1UL << SCB_ICSR_PENDSVCLR_Pos)                /*!< SCB 
 397:Generated_Source\PSoC6\pdl\cmsis/include/core_cm0plus.h **** 
 398:Generated_Source\PSoC6\pdl\cmsis/include/core_cm0plus.h **** #define SCB_ICSR_PENDSTSET_Pos             26U                                            /*!< SCB 
 399:Generated_Source\PSoC6\pdl\cmsis/include/core_cm0plus.h **** #define SCB_ICSR_PENDSTSET_Msk             (1UL << SCB_ICSR_PENDSTSET_Pos)                /*!< SCB 
 400:Generated_Source\PSoC6\pdl\cmsis/include/core_cm0plus.h **** 
 401:Generated_Source\PSoC6\pdl\cmsis/include/core_cm0plus.h **** #define SCB_ICSR_PENDSTCLR_Pos             25U                                            /*!< SCB 
 402:Generated_Source\PSoC6\pdl\cmsis/include/core_cm0plus.h **** #define SCB_ICSR_PENDSTCLR_Msk             (1UL << SCB_ICSR_PENDSTCLR_Pos)                /*!< SCB 
 403:Generated_Source\PSoC6\pdl\cmsis/include/core_cm0plus.h **** 
 404:Generated_Source\PSoC6\pdl\cmsis/include/core_cm0plus.h **** #define SCB_ICSR_ISRPREEMPT_Pos            23U                                            /*!< SCB 
 405:Generated_Source\PSoC6\pdl\cmsis/include/core_cm0plus.h **** #define SCB_ICSR_ISRPREEMPT_Msk            (1UL << SCB_ICSR_ISRPREEMPT_Pos)               /*!< SCB 
 406:Generated_Source\PSoC6\pdl\cmsis/include/core_cm0plus.h **** 
 407:Generated_Source\PSoC6\pdl\cmsis/include/core_cm0plus.h **** #define SCB_ICSR_ISRPENDING_Pos            22U                                            /*!< SCB 
 408:Generated_Source\PSoC6\pdl\cmsis/include/core_cm0plus.h **** #define SCB_ICSR_ISRPENDING_Msk            (1UL << SCB_ICSR_ISRPENDING_Pos)               /*!< SCB 
 409:Generated_Source\PSoC6\pdl\cmsis/include/core_cm0plus.h **** 
 410:Generated_Source\PSoC6\pdl\cmsis/include/core_cm0plus.h **** #define SCB_ICSR_VECTPENDING_Pos           12U                                            /*!< SCB 
 411:Generated_Source\PSoC6\pdl\cmsis/include/core_cm0plus.h **** #define SCB_ICSR_VECTPENDING_Msk           (0x1FFUL << SCB_ICSR_VECTPENDING_Pos)          /*!< SCB 
 412:Generated_Source\PSoC6\pdl\cmsis/include/core_cm0plus.h **** 
ARM GAS  C:\Users\seths\AppData\Local\Temp\ccu8EsPT.s 			page 23


 413:Generated_Source\PSoC6\pdl\cmsis/include/core_cm0plus.h **** #define SCB_ICSR_VECTACTIVE_Pos             0U                                            /*!< SCB 
 414:Generated_Source\PSoC6\pdl\cmsis/include/core_cm0plus.h **** #define SCB_ICSR_VECTACTIVE_Msk            (0x1FFUL /*<< SCB_ICSR_VECTACTIVE_Pos*/)       /*!< SCB 
 415:Generated_Source\PSoC6\pdl\cmsis/include/core_cm0plus.h **** 
 416:Generated_Source\PSoC6\pdl\cmsis/include/core_cm0plus.h **** #if defined (__VTOR_PRESENT) && (__VTOR_PRESENT == 1U)
 417:Generated_Source\PSoC6\pdl\cmsis/include/core_cm0plus.h **** /* SCB Interrupt Control State Register Definitions */
 418:Generated_Source\PSoC6\pdl\cmsis/include/core_cm0plus.h **** #define SCB_VTOR_TBLOFF_Pos                 8U                                            /*!< SCB 
 419:Generated_Source\PSoC6\pdl\cmsis/include/core_cm0plus.h **** #define SCB_VTOR_TBLOFF_Msk                (0xFFFFFFUL << SCB_VTOR_TBLOFF_Pos)            /*!< SCB 
 420:Generated_Source\PSoC6\pdl\cmsis/include/core_cm0plus.h **** #endif
 421:Generated_Source\PSoC6\pdl\cmsis/include/core_cm0plus.h **** 
 422:Generated_Source\PSoC6\pdl\cmsis/include/core_cm0plus.h **** /* SCB Application Interrupt and Reset Control Register Definitions */
 423:Generated_Source\PSoC6\pdl\cmsis/include/core_cm0plus.h **** #define SCB_AIRCR_VECTKEY_Pos              16U                                            /*!< SCB 
 424:Generated_Source\PSoC6\pdl\cmsis/include/core_cm0plus.h **** #define SCB_AIRCR_VECTKEY_Msk              (0xFFFFUL << SCB_AIRCR_VECTKEY_Pos)            /*!< SCB 
 425:Generated_Source\PSoC6\pdl\cmsis/include/core_cm0plus.h **** 
 426:Generated_Source\PSoC6\pdl\cmsis/include/core_cm0plus.h **** #define SCB_AIRCR_VECTKEYSTAT_Pos          16U                                            /*!< SCB 
 427:Generated_Source\PSoC6\pdl\cmsis/include/core_cm0plus.h **** #define SCB_AIRCR_VECTKEYSTAT_Msk          (0xFFFFUL << SCB_AIRCR_VECTKEYSTAT_Pos)        /*!< SCB 
 428:Generated_Source\PSoC6\pdl\cmsis/include/core_cm0plus.h **** 
 429:Generated_Source\PSoC6\pdl\cmsis/include/core_cm0plus.h **** #define SCB_AIRCR_ENDIANESS_Pos            15U                                            /*!< SCB 
 430:Generated_Source\PSoC6\pdl\cmsis/include/core_cm0plus.h **** #define SCB_AIRCR_ENDIANESS_Msk            (1UL << SCB_AIRCR_ENDIANESS_Pos)               /*!< SCB 
 431:Generated_Source\PSoC6\pdl\cmsis/include/core_cm0plus.h **** 
 432:Generated_Source\PSoC6\pdl\cmsis/include/core_cm0plus.h **** #define SCB_AIRCR_SYSRESETREQ_Pos           2U                                            /*!< SCB 
 433:Generated_Source\PSoC6\pdl\cmsis/include/core_cm0plus.h **** #define SCB_AIRCR_SYSRESETREQ_Msk          (1UL << SCB_AIRCR_SYSRESETREQ_Pos)             /*!< SCB 
 434:Generated_Source\PSoC6\pdl\cmsis/include/core_cm0plus.h **** 
 435:Generated_Source\PSoC6\pdl\cmsis/include/core_cm0plus.h **** #define SCB_AIRCR_VECTCLRACTIVE_Pos         1U                                            /*!< SCB 
 436:Generated_Source\PSoC6\pdl\cmsis/include/core_cm0plus.h **** #define SCB_AIRCR_VECTCLRACTIVE_Msk        (1UL << SCB_AIRCR_VECTCLRACTIVE_Pos)           /*!< SCB 
 437:Generated_Source\PSoC6\pdl\cmsis/include/core_cm0plus.h **** 
 438:Generated_Source\PSoC6\pdl\cmsis/include/core_cm0plus.h **** /* SCB System Control Register Definitions */
 439:Generated_Source\PSoC6\pdl\cmsis/include/core_cm0plus.h **** #define SCB_SCR_SEVONPEND_Pos               4U                                            /*!< SCB 
 440:Generated_Source\PSoC6\pdl\cmsis/include/core_cm0plus.h **** #define SCB_SCR_SEVONPEND_Msk              (1UL << SCB_SCR_SEVONPEND_Pos)                 /*!< SCB 
 441:Generated_Source\PSoC6\pdl\cmsis/include/core_cm0plus.h **** 
 442:Generated_Source\PSoC6\pdl\cmsis/include/core_cm0plus.h **** #define SCB_SCR_SLEEPDEEP_Pos               2U                                            /*!< SCB 
 443:Generated_Source\PSoC6\pdl\cmsis/include/core_cm0plus.h **** #define SCB_SCR_SLEEPDEEP_Msk              (1UL << SCB_SCR_SLEEPDEEP_Pos)                 /*!< SCB 
 444:Generated_Source\PSoC6\pdl\cmsis/include/core_cm0plus.h **** 
 445:Generated_Source\PSoC6\pdl\cmsis/include/core_cm0plus.h **** #define SCB_SCR_SLEEPONEXIT_Pos             1U                                            /*!< SCB 
 446:Generated_Source\PSoC6\pdl\cmsis/include/core_cm0plus.h **** #define SCB_SCR_SLEEPONEXIT_Msk            (1UL << SCB_SCR_SLEEPONEXIT_Pos)               /*!< SCB 
 447:Generated_Source\PSoC6\pdl\cmsis/include/core_cm0plus.h **** 
 448:Generated_Source\PSoC6\pdl\cmsis/include/core_cm0plus.h **** /* SCB Configuration Control Register Definitions */
 449:Generated_Source\PSoC6\pdl\cmsis/include/core_cm0plus.h **** #define SCB_CCR_STKALIGN_Pos                9U                                            /*!< SCB 
 450:Generated_Source\PSoC6\pdl\cmsis/include/core_cm0plus.h **** #define SCB_CCR_STKALIGN_Msk               (1UL << SCB_CCR_STKALIGN_Pos)                  /*!< SCB 
 451:Generated_Source\PSoC6\pdl\cmsis/include/core_cm0plus.h **** 
 452:Generated_Source\PSoC6\pdl\cmsis/include/core_cm0plus.h **** #define SCB_CCR_UNALIGN_TRP_Pos             3U                                            /*!< SCB 
 453:Generated_Source\PSoC6\pdl\cmsis/include/core_cm0plus.h **** #define SCB_CCR_UNALIGN_TRP_Msk            (1UL << SCB_CCR_UNALIGN_TRP_Pos)               /*!< SCB 
 454:Generated_Source\PSoC6\pdl\cmsis/include/core_cm0plus.h **** 
 455:Generated_Source\PSoC6\pdl\cmsis/include/core_cm0plus.h **** /* SCB System Handler Control and State Register Definitions */
 456:Generated_Source\PSoC6\pdl\cmsis/include/core_cm0plus.h **** #define SCB_SHCSR_SVCALLPENDED_Pos         15U                                            /*!< SCB 
 457:Generated_Source\PSoC6\pdl\cmsis/include/core_cm0plus.h **** #define SCB_SHCSR_SVCALLPENDED_Msk         (1UL << SCB_SHCSR_SVCALLPENDED_Pos)            /*!< SCB 
 458:Generated_Source\PSoC6\pdl\cmsis/include/core_cm0plus.h **** 
 459:Generated_Source\PSoC6\pdl\cmsis/include/core_cm0plus.h **** /*@} end of group CMSIS_SCB */
 460:Generated_Source\PSoC6\pdl\cmsis/include/core_cm0plus.h **** 
 461:Generated_Source\PSoC6\pdl\cmsis/include/core_cm0plus.h **** 
 462:Generated_Source\PSoC6\pdl\cmsis/include/core_cm0plus.h **** /**
 463:Generated_Source\PSoC6\pdl\cmsis/include/core_cm0plus.h ****   \ingroup  CMSIS_core_register
 464:Generated_Source\PSoC6\pdl\cmsis/include/core_cm0plus.h ****   \defgroup CMSIS_SysTick     System Tick Timer (SysTick)
 465:Generated_Source\PSoC6\pdl\cmsis/include/core_cm0plus.h ****   \brief    Type definitions for the System Timer Registers.
 466:Generated_Source\PSoC6\pdl\cmsis/include/core_cm0plus.h ****   @{
 467:Generated_Source\PSoC6\pdl\cmsis/include/core_cm0plus.h ****  */
 468:Generated_Source\PSoC6\pdl\cmsis/include/core_cm0plus.h **** 
 469:Generated_Source\PSoC6\pdl\cmsis/include/core_cm0plus.h **** /**
ARM GAS  C:\Users\seths\AppData\Local\Temp\ccu8EsPT.s 			page 24


 470:Generated_Source\PSoC6\pdl\cmsis/include/core_cm0plus.h ****   \brief  Structure type to access the System Timer (SysTick).
 471:Generated_Source\PSoC6\pdl\cmsis/include/core_cm0plus.h ****  */
 472:Generated_Source\PSoC6\pdl\cmsis/include/core_cm0plus.h **** typedef struct
 473:Generated_Source\PSoC6\pdl\cmsis/include/core_cm0plus.h **** {
 474:Generated_Source\PSoC6\pdl\cmsis/include/core_cm0plus.h ****   __IOM uint32_t CTRL;                   /*!< Offset: 0x000 (R/W)  SysTick Control and Status Regis
 475:Generated_Source\PSoC6\pdl\cmsis/include/core_cm0plus.h ****   __IOM uint32_t LOAD;                   /*!< Offset: 0x004 (R/W)  SysTick Reload Value Register */
 476:Generated_Source\PSoC6\pdl\cmsis/include/core_cm0plus.h ****   __IOM uint32_t VAL;                    /*!< Offset: 0x008 (R/W)  SysTick Current Value Register *
 477:Generated_Source\PSoC6\pdl\cmsis/include/core_cm0plus.h ****   __IM  uint32_t CALIB;                  /*!< Offset: 0x00C (R/ )  SysTick Calibration Register */
 478:Generated_Source\PSoC6\pdl\cmsis/include/core_cm0plus.h **** } SysTick_Type;
 479:Generated_Source\PSoC6\pdl\cmsis/include/core_cm0plus.h **** 
 480:Generated_Source\PSoC6\pdl\cmsis/include/core_cm0plus.h **** /* SysTick Control / Status Register Definitions */
 481:Generated_Source\PSoC6\pdl\cmsis/include/core_cm0plus.h **** #define SysTick_CTRL_COUNTFLAG_Pos         16U                                            /*!< SysT
 482:Generated_Source\PSoC6\pdl\cmsis/include/core_cm0plus.h **** #define SysTick_CTRL_COUNTFLAG_Msk         (1UL << SysTick_CTRL_COUNTFLAG_Pos)            /*!< SysT
 483:Generated_Source\PSoC6\pdl\cmsis/include/core_cm0plus.h **** 
 484:Generated_Source\PSoC6\pdl\cmsis/include/core_cm0plus.h **** #define SysTick_CTRL_CLKSOURCE_Pos          2U                                            /*!< SysT
 485:Generated_Source\PSoC6\pdl\cmsis/include/core_cm0plus.h **** #define SysTick_CTRL_CLKSOURCE_Msk         (1UL << SysTick_CTRL_CLKSOURCE_Pos)            /*!< SysT
 486:Generated_Source\PSoC6\pdl\cmsis/include/core_cm0plus.h **** 
 487:Generated_Source\PSoC6\pdl\cmsis/include/core_cm0plus.h **** #define SysTick_CTRL_TICKINT_Pos            1U                                            /*!< SysT
 488:Generated_Source\PSoC6\pdl\cmsis/include/core_cm0plus.h **** #define SysTick_CTRL_TICKINT_Msk           (1UL << SysTick_CTRL_TICKINT_Pos)              /*!< SysT
 489:Generated_Source\PSoC6\pdl\cmsis/include/core_cm0plus.h **** 
 490:Generated_Source\PSoC6\pdl\cmsis/include/core_cm0plus.h **** #define SysTick_CTRL_ENABLE_Pos             0U                                            /*!< SysT
 491:Generated_Source\PSoC6\pdl\cmsis/include/core_cm0plus.h **** #define SysTick_CTRL_ENABLE_Msk            (1UL /*<< SysTick_CTRL_ENABLE_Pos*/)           /*!< SysT
 492:Generated_Source\PSoC6\pdl\cmsis/include/core_cm0plus.h **** 
 493:Generated_Source\PSoC6\pdl\cmsis/include/core_cm0plus.h **** /* SysTick Reload Register Definitions */
 494:Generated_Source\PSoC6\pdl\cmsis/include/core_cm0plus.h **** #define SysTick_LOAD_RELOAD_Pos             0U                                            /*!< SysT
 495:Generated_Source\PSoC6\pdl\cmsis/include/core_cm0plus.h **** #define SysTick_LOAD_RELOAD_Msk            (0xFFFFFFUL /*<< SysTick_LOAD_RELOAD_Pos*/)    /*!< SysT
 496:Generated_Source\PSoC6\pdl\cmsis/include/core_cm0plus.h **** 
 497:Generated_Source\PSoC6\pdl\cmsis/include/core_cm0plus.h **** /* SysTick Current Register Definitions */
 498:Generated_Source\PSoC6\pdl\cmsis/include/core_cm0plus.h **** #define SysTick_VAL_CURRENT_Pos             0U                                            /*!< SysT
 499:Generated_Source\PSoC6\pdl\cmsis/include/core_cm0plus.h **** #define SysTick_VAL_CURRENT_Msk            (0xFFFFFFUL /*<< SysTick_VAL_CURRENT_Pos*/)    /*!< SysT
 500:Generated_Source\PSoC6\pdl\cmsis/include/core_cm0plus.h **** 
 501:Generated_Source\PSoC6\pdl\cmsis/include/core_cm0plus.h **** /* SysTick Calibration Register Definitions */
 502:Generated_Source\PSoC6\pdl\cmsis/include/core_cm0plus.h **** #define SysTick_CALIB_NOREF_Pos            31U                                            /*!< SysT
 503:Generated_Source\PSoC6\pdl\cmsis/include/core_cm0plus.h **** #define SysTick_CALIB_NOREF_Msk            (1UL << SysTick_CALIB_NOREF_Pos)               /*!< SysT
 504:Generated_Source\PSoC6\pdl\cmsis/include/core_cm0plus.h **** 
 505:Generated_Source\PSoC6\pdl\cmsis/include/core_cm0plus.h **** #define SysTick_CALIB_SKEW_Pos             30U                                            /*!< SysT
 506:Generated_Source\PSoC6\pdl\cmsis/include/core_cm0plus.h **** #define SysTick_CALIB_SKEW_Msk             (1UL << SysTick_CALIB_SKEW_Pos)                /*!< SysT
 507:Generated_Source\PSoC6\pdl\cmsis/include/core_cm0plus.h **** 
 508:Generated_Source\PSoC6\pdl\cmsis/include/core_cm0plus.h **** #define SysTick_CALIB_TENMS_Pos             0U                                            /*!< SysT
 509:Generated_Source\PSoC6\pdl\cmsis/include/core_cm0plus.h **** #define SysTick_CALIB_TENMS_Msk            (0xFFFFFFUL /*<< SysTick_CALIB_TENMS_Pos*/)    /*!< SysT
 510:Generated_Source\PSoC6\pdl\cmsis/include/core_cm0plus.h **** 
 511:Generated_Source\PSoC6\pdl\cmsis/include/core_cm0plus.h **** /*@} end of group CMSIS_SysTick */
 512:Generated_Source\PSoC6\pdl\cmsis/include/core_cm0plus.h **** 
 513:Generated_Source\PSoC6\pdl\cmsis/include/core_cm0plus.h **** #if defined (__MPU_PRESENT) && (__MPU_PRESENT == 1U)
 514:Generated_Source\PSoC6\pdl\cmsis/include/core_cm0plus.h **** /**
 515:Generated_Source\PSoC6\pdl\cmsis/include/core_cm0plus.h ****   \ingroup  CMSIS_core_register
 516:Generated_Source\PSoC6\pdl\cmsis/include/core_cm0plus.h ****   \defgroup CMSIS_MPU     Memory Protection Unit (MPU)
 517:Generated_Source\PSoC6\pdl\cmsis/include/core_cm0plus.h ****   \brief    Type definitions for the Memory Protection Unit (MPU)
 518:Generated_Source\PSoC6\pdl\cmsis/include/core_cm0plus.h ****   @{
 519:Generated_Source\PSoC6\pdl\cmsis/include/core_cm0plus.h ****  */
 520:Generated_Source\PSoC6\pdl\cmsis/include/core_cm0plus.h **** 
 521:Generated_Source\PSoC6\pdl\cmsis/include/core_cm0plus.h **** /**
 522:Generated_Source\PSoC6\pdl\cmsis/include/core_cm0plus.h ****   \brief  Structure type to access the Memory Protection Unit (MPU).
 523:Generated_Source\PSoC6\pdl\cmsis/include/core_cm0plus.h ****  */
 524:Generated_Source\PSoC6\pdl\cmsis/include/core_cm0plus.h **** typedef struct
 525:Generated_Source\PSoC6\pdl\cmsis/include/core_cm0plus.h **** {
 526:Generated_Source\PSoC6\pdl\cmsis/include/core_cm0plus.h ****   __IM  uint32_t TYPE;                   /*!< Offset: 0x000 (R/ )  MPU Type Register */
ARM GAS  C:\Users\seths\AppData\Local\Temp\ccu8EsPT.s 			page 25


 527:Generated_Source\PSoC6\pdl\cmsis/include/core_cm0plus.h ****   __IOM uint32_t CTRL;                   /*!< Offset: 0x004 (R/W)  MPU Control Register */
 528:Generated_Source\PSoC6\pdl\cmsis/include/core_cm0plus.h ****   __IOM uint32_t RNR;                    /*!< Offset: 0x008 (R/W)  MPU Region RNRber Register */
 529:Generated_Source\PSoC6\pdl\cmsis/include/core_cm0plus.h ****   __IOM uint32_t RBAR;                   /*!< Offset: 0x00C (R/W)  MPU Region Base Address Register
 530:Generated_Source\PSoC6\pdl\cmsis/include/core_cm0plus.h ****   __IOM uint32_t RASR;                   /*!< Offset: 0x010 (R/W)  MPU Region Attribute and Size Re
 531:Generated_Source\PSoC6\pdl\cmsis/include/core_cm0plus.h **** } MPU_Type;
 532:Generated_Source\PSoC6\pdl\cmsis/include/core_cm0plus.h **** 
 533:Generated_Source\PSoC6\pdl\cmsis/include/core_cm0plus.h **** #define MPU_TYPE_RALIASES                  1U
 534:Generated_Source\PSoC6\pdl\cmsis/include/core_cm0plus.h **** 
 535:Generated_Source\PSoC6\pdl\cmsis/include/core_cm0plus.h **** /* MPU Type Register Definitions */
 536:Generated_Source\PSoC6\pdl\cmsis/include/core_cm0plus.h **** #define MPU_TYPE_IREGION_Pos               16U                                            /*!< MPU 
 537:Generated_Source\PSoC6\pdl\cmsis/include/core_cm0plus.h **** #define MPU_TYPE_IREGION_Msk               (0xFFUL << MPU_TYPE_IREGION_Pos)               /*!< MPU 
 538:Generated_Source\PSoC6\pdl\cmsis/include/core_cm0plus.h **** 
 539:Generated_Source\PSoC6\pdl\cmsis/include/core_cm0plus.h **** #define MPU_TYPE_DREGION_Pos                8U                                            /*!< MPU 
 540:Generated_Source\PSoC6\pdl\cmsis/include/core_cm0plus.h **** #define MPU_TYPE_DREGION_Msk               (0xFFUL << MPU_TYPE_DREGION_Pos)               /*!< MPU 
 541:Generated_Source\PSoC6\pdl\cmsis/include/core_cm0plus.h **** 
 542:Generated_Source\PSoC6\pdl\cmsis/include/core_cm0plus.h **** #define MPU_TYPE_SEPARATE_Pos               0U                                            /*!< MPU 
 543:Generated_Source\PSoC6\pdl\cmsis/include/core_cm0plus.h **** #define MPU_TYPE_SEPARATE_Msk              (1UL /*<< MPU_TYPE_SEPARATE_Pos*/)             /*!< MPU 
 544:Generated_Source\PSoC6\pdl\cmsis/include/core_cm0plus.h **** 
 545:Generated_Source\PSoC6\pdl\cmsis/include/core_cm0plus.h **** /* MPU Control Register Definitions */
 546:Generated_Source\PSoC6\pdl\cmsis/include/core_cm0plus.h **** #define MPU_CTRL_PRIVDEFENA_Pos             2U                                            /*!< MPU 
 547:Generated_Source\PSoC6\pdl\cmsis/include/core_cm0plus.h **** #define MPU_CTRL_PRIVDEFENA_Msk            (1UL << MPU_CTRL_PRIVDEFENA_Pos)               /*!< MPU 
 548:Generated_Source\PSoC6\pdl\cmsis/include/core_cm0plus.h **** 
 549:Generated_Source\PSoC6\pdl\cmsis/include/core_cm0plus.h **** #define MPU_CTRL_HFNMIENA_Pos               1U                                            /*!< MPU 
 550:Generated_Source\PSoC6\pdl\cmsis/include/core_cm0plus.h **** #define MPU_CTRL_HFNMIENA_Msk              (1UL << MPU_CTRL_HFNMIENA_Pos)                 /*!< MPU 
 551:Generated_Source\PSoC6\pdl\cmsis/include/core_cm0plus.h **** 
 552:Generated_Source\PSoC6\pdl\cmsis/include/core_cm0plus.h **** #define MPU_CTRL_ENABLE_Pos                 0U                                            /*!< MPU 
 553:Generated_Source\PSoC6\pdl\cmsis/include/core_cm0plus.h **** #define MPU_CTRL_ENABLE_Msk                (1UL /*<< MPU_CTRL_ENABLE_Pos*/)               /*!< MPU 
 554:Generated_Source\PSoC6\pdl\cmsis/include/core_cm0plus.h **** 
 555:Generated_Source\PSoC6\pdl\cmsis/include/core_cm0plus.h **** /* MPU Region Number Register Definitions */
 556:Generated_Source\PSoC6\pdl\cmsis/include/core_cm0plus.h **** #define MPU_RNR_REGION_Pos                  0U                                            /*!< MPU 
 557:Generated_Source\PSoC6\pdl\cmsis/include/core_cm0plus.h **** #define MPU_RNR_REGION_Msk                 (0xFFUL /*<< MPU_RNR_REGION_Pos*/)             /*!< MPU 
 558:Generated_Source\PSoC6\pdl\cmsis/include/core_cm0plus.h **** 
 559:Generated_Source\PSoC6\pdl\cmsis/include/core_cm0plus.h **** /* MPU Region Base Address Register Definitions */
 560:Generated_Source\PSoC6\pdl\cmsis/include/core_cm0plus.h **** #define MPU_RBAR_ADDR_Pos                   8U                                            /*!< MPU 
 561:Generated_Source\PSoC6\pdl\cmsis/include/core_cm0plus.h **** #define MPU_RBAR_ADDR_Msk                  (0xFFFFFFUL << MPU_RBAR_ADDR_Pos)              /*!< MPU 
 562:Generated_Source\PSoC6\pdl\cmsis/include/core_cm0plus.h **** 
 563:Generated_Source\PSoC6\pdl\cmsis/include/core_cm0plus.h **** #define MPU_RBAR_VALID_Pos                  4U                                            /*!< MPU 
 564:Generated_Source\PSoC6\pdl\cmsis/include/core_cm0plus.h **** #define MPU_RBAR_VALID_Msk                 (1UL << MPU_RBAR_VALID_Pos)                    /*!< MPU 
 565:Generated_Source\PSoC6\pdl\cmsis/include/core_cm0plus.h **** 
 566:Generated_Source\PSoC6\pdl\cmsis/include/core_cm0plus.h **** #define MPU_RBAR_REGION_Pos                 0U                                            /*!< MPU 
 567:Generated_Source\PSoC6\pdl\cmsis/include/core_cm0plus.h **** #define MPU_RBAR_REGION_Msk                (0xFUL /*<< MPU_RBAR_REGION_Pos*/)             /*!< MPU 
 568:Generated_Source\PSoC6\pdl\cmsis/include/core_cm0plus.h **** 
 569:Generated_Source\PSoC6\pdl\cmsis/include/core_cm0plus.h **** /* MPU Region Attribute and Size Register Definitions */
 570:Generated_Source\PSoC6\pdl\cmsis/include/core_cm0plus.h **** #define MPU_RASR_ATTRS_Pos                 16U                                            /*!< MPU 
 571:Generated_Source\PSoC6\pdl\cmsis/include/core_cm0plus.h **** #define MPU_RASR_ATTRS_Msk                 (0xFFFFUL << MPU_RASR_ATTRS_Pos)               /*!< MPU 
 572:Generated_Source\PSoC6\pdl\cmsis/include/core_cm0plus.h **** 
 573:Generated_Source\PSoC6\pdl\cmsis/include/core_cm0plus.h **** #define MPU_RASR_XN_Pos                    28U                                            /*!< MPU 
 574:Generated_Source\PSoC6\pdl\cmsis/include/core_cm0plus.h **** #define MPU_RASR_XN_Msk                    (1UL << MPU_RASR_XN_Pos)                       /*!< MPU 
 575:Generated_Source\PSoC6\pdl\cmsis/include/core_cm0plus.h **** 
 576:Generated_Source\PSoC6\pdl\cmsis/include/core_cm0plus.h **** #define MPU_RASR_AP_Pos                    24U                                            /*!< MPU 
 577:Generated_Source\PSoC6\pdl\cmsis/include/core_cm0plus.h **** #define MPU_RASR_AP_Msk                    (0x7UL << MPU_RASR_AP_Pos)                     /*!< MPU 
 578:Generated_Source\PSoC6\pdl\cmsis/include/core_cm0plus.h **** 
 579:Generated_Source\PSoC6\pdl\cmsis/include/core_cm0plus.h **** #define MPU_RASR_TEX_Pos                   19U                                            /*!< MPU 
 580:Generated_Source\PSoC6\pdl\cmsis/include/core_cm0plus.h **** #define MPU_RASR_TEX_Msk                   (0x7UL << MPU_RASR_TEX_Pos)                    /*!< MPU 
 581:Generated_Source\PSoC6\pdl\cmsis/include/core_cm0plus.h **** 
 582:Generated_Source\PSoC6\pdl\cmsis/include/core_cm0plus.h **** #define MPU_RASR_S_Pos                     18U                                            /*!< MPU 
 583:Generated_Source\PSoC6\pdl\cmsis/include/core_cm0plus.h **** #define MPU_RASR_S_Msk                     (1UL << MPU_RASR_S_Pos)                        /*!< MPU 
ARM GAS  C:\Users\seths\AppData\Local\Temp\ccu8EsPT.s 			page 26


 584:Generated_Source\PSoC6\pdl\cmsis/include/core_cm0plus.h **** 
 585:Generated_Source\PSoC6\pdl\cmsis/include/core_cm0plus.h **** #define MPU_RASR_C_Pos                     17U                                            /*!< MPU 
 586:Generated_Source\PSoC6\pdl\cmsis/include/core_cm0plus.h **** #define MPU_RASR_C_Msk                     (1UL << MPU_RASR_C_Pos)                        /*!< MPU 
 587:Generated_Source\PSoC6\pdl\cmsis/include/core_cm0plus.h **** 
 588:Generated_Source\PSoC6\pdl\cmsis/include/core_cm0plus.h **** #define MPU_RASR_B_Pos                     16U                                            /*!< MPU 
 589:Generated_Source\PSoC6\pdl\cmsis/include/core_cm0plus.h **** #define MPU_RASR_B_Msk                     (1UL << MPU_RASR_B_Pos)                        /*!< MPU 
 590:Generated_Source\PSoC6\pdl\cmsis/include/core_cm0plus.h **** 
 591:Generated_Source\PSoC6\pdl\cmsis/include/core_cm0plus.h **** #define MPU_RASR_SRD_Pos                    8U                                            /*!< MPU 
 592:Generated_Source\PSoC6\pdl\cmsis/include/core_cm0plus.h **** #define MPU_RASR_SRD_Msk                   (0xFFUL << MPU_RASR_SRD_Pos)                   /*!< MPU 
 593:Generated_Source\PSoC6\pdl\cmsis/include/core_cm0plus.h **** 
 594:Generated_Source\PSoC6\pdl\cmsis/include/core_cm0plus.h **** #define MPU_RASR_SIZE_Pos                   1U                                            /*!< MPU 
 595:Generated_Source\PSoC6\pdl\cmsis/include/core_cm0plus.h **** #define MPU_RASR_SIZE_Msk                  (0x1FUL << MPU_RASR_SIZE_Pos)                  /*!< MPU 
 596:Generated_Source\PSoC6\pdl\cmsis/include/core_cm0plus.h **** 
 597:Generated_Source\PSoC6\pdl\cmsis/include/core_cm0plus.h **** #define MPU_RASR_ENABLE_Pos                 0U                                            /*!< MPU 
 598:Generated_Source\PSoC6\pdl\cmsis/include/core_cm0plus.h **** #define MPU_RASR_ENABLE_Msk                (1UL /*<< MPU_RASR_ENABLE_Pos*/)               /*!< MPU 
 599:Generated_Source\PSoC6\pdl\cmsis/include/core_cm0plus.h **** 
 600:Generated_Source\PSoC6\pdl\cmsis/include/core_cm0plus.h **** /*@} end of group CMSIS_MPU */
 601:Generated_Source\PSoC6\pdl\cmsis/include/core_cm0plus.h **** #endif
 602:Generated_Source\PSoC6\pdl\cmsis/include/core_cm0plus.h **** 
 603:Generated_Source\PSoC6\pdl\cmsis/include/core_cm0plus.h **** 
 604:Generated_Source\PSoC6\pdl\cmsis/include/core_cm0plus.h **** /**
 605:Generated_Source\PSoC6\pdl\cmsis/include/core_cm0plus.h ****   \ingroup  CMSIS_core_register
 606:Generated_Source\PSoC6\pdl\cmsis/include/core_cm0plus.h ****   \defgroup CMSIS_CoreDebug       Core Debug Registers (CoreDebug)
 607:Generated_Source\PSoC6\pdl\cmsis/include/core_cm0plus.h ****   \brief    Cortex-M0+ Core Debug Registers (DCB registers, SHCSR, and DFSR) are only accessible ov
 608:Generated_Source\PSoC6\pdl\cmsis/include/core_cm0plus.h ****             Therefore they are not covered by the Cortex-M0+ header file.
 609:Generated_Source\PSoC6\pdl\cmsis/include/core_cm0plus.h ****   @{
 610:Generated_Source\PSoC6\pdl\cmsis/include/core_cm0plus.h ****  */
 611:Generated_Source\PSoC6\pdl\cmsis/include/core_cm0plus.h **** /*@} end of group CMSIS_CoreDebug */
 612:Generated_Source\PSoC6\pdl\cmsis/include/core_cm0plus.h **** 
 613:Generated_Source\PSoC6\pdl\cmsis/include/core_cm0plus.h **** 
 614:Generated_Source\PSoC6\pdl\cmsis/include/core_cm0plus.h **** /**
 615:Generated_Source\PSoC6\pdl\cmsis/include/core_cm0plus.h ****   \ingroup    CMSIS_core_register
 616:Generated_Source\PSoC6\pdl\cmsis/include/core_cm0plus.h ****   \defgroup   CMSIS_core_bitfield     Core register bit field macros
 617:Generated_Source\PSoC6\pdl\cmsis/include/core_cm0plus.h ****   \brief      Macros for use with bit field definitions (xxx_Pos, xxx_Msk).
 618:Generated_Source\PSoC6\pdl\cmsis/include/core_cm0plus.h ****   @{
 619:Generated_Source\PSoC6\pdl\cmsis/include/core_cm0plus.h ****  */
 620:Generated_Source\PSoC6\pdl\cmsis/include/core_cm0plus.h **** 
 621:Generated_Source\PSoC6\pdl\cmsis/include/core_cm0plus.h **** /**
 622:Generated_Source\PSoC6\pdl\cmsis/include/core_cm0plus.h ****   \brief   Mask and shift a bit field value for use in a register bit range.
 623:Generated_Source\PSoC6\pdl\cmsis/include/core_cm0plus.h ****   \param[in] field  Name of the register bit field.
 624:Generated_Source\PSoC6\pdl\cmsis/include/core_cm0plus.h ****   \param[in] value  Value of the bit field. This parameter is interpreted as an uint32_t type.
 625:Generated_Source\PSoC6\pdl\cmsis/include/core_cm0plus.h ****   \return           Masked and shifted value.
 626:Generated_Source\PSoC6\pdl\cmsis/include/core_cm0plus.h **** */
 627:Generated_Source\PSoC6\pdl\cmsis/include/core_cm0plus.h **** #define _VAL2FLD(field, value)    (((uint32_t)(value) << field ## _Pos) & field ## _Msk)
 628:Generated_Source\PSoC6\pdl\cmsis/include/core_cm0plus.h **** 
 629:Generated_Source\PSoC6\pdl\cmsis/include/core_cm0plus.h **** /**
 630:Generated_Source\PSoC6\pdl\cmsis/include/core_cm0plus.h ****   \brief     Mask and shift a register value to extract a bit filed value.
 631:Generated_Source\PSoC6\pdl\cmsis/include/core_cm0plus.h ****   \param[in] field  Name of the register bit field.
 632:Generated_Source\PSoC6\pdl\cmsis/include/core_cm0plus.h ****   \param[in] value  Value of register. This parameter is interpreted as an uint32_t type.
 633:Generated_Source\PSoC6\pdl\cmsis/include/core_cm0plus.h ****   \return           Masked and shifted bit field value.
 634:Generated_Source\PSoC6\pdl\cmsis/include/core_cm0plus.h **** */
 635:Generated_Source\PSoC6\pdl\cmsis/include/core_cm0plus.h **** #define _FLD2VAL(field, value)    (((uint32_t)(value) & field ## _Msk) >> field ## _Pos)
 636:Generated_Source\PSoC6\pdl\cmsis/include/core_cm0plus.h **** 
 637:Generated_Source\PSoC6\pdl\cmsis/include/core_cm0plus.h **** /*@} end of group CMSIS_core_bitfield */
 638:Generated_Source\PSoC6\pdl\cmsis/include/core_cm0plus.h **** 
 639:Generated_Source\PSoC6\pdl\cmsis/include/core_cm0plus.h **** 
 640:Generated_Source\PSoC6\pdl\cmsis/include/core_cm0plus.h **** /**
ARM GAS  C:\Users\seths\AppData\Local\Temp\ccu8EsPT.s 			page 27


 641:Generated_Source\PSoC6\pdl\cmsis/include/core_cm0plus.h ****   \ingroup    CMSIS_core_register
 642:Generated_Source\PSoC6\pdl\cmsis/include/core_cm0plus.h ****   \defgroup   CMSIS_core_base     Core Definitions
 643:Generated_Source\PSoC6\pdl\cmsis/include/core_cm0plus.h ****   \brief      Definitions for base addresses, unions, and structures.
 644:Generated_Source\PSoC6\pdl\cmsis/include/core_cm0plus.h ****   @{
 645:Generated_Source\PSoC6\pdl\cmsis/include/core_cm0plus.h ****  */
 646:Generated_Source\PSoC6\pdl\cmsis/include/core_cm0plus.h **** 
 647:Generated_Source\PSoC6\pdl\cmsis/include/core_cm0plus.h **** /* Memory mapping of Core Hardware */
 648:Generated_Source\PSoC6\pdl\cmsis/include/core_cm0plus.h **** #define SCS_BASE            (0xE000E000UL)                            /*!< System Control Space Bas
 649:Generated_Source\PSoC6\pdl\cmsis/include/core_cm0plus.h **** #define SysTick_BASE        (SCS_BASE +  0x0010UL)                    /*!< SysTick Base Address */
 650:Generated_Source\PSoC6\pdl\cmsis/include/core_cm0plus.h **** #define NVIC_BASE           (SCS_BASE +  0x0100UL)                    /*!< NVIC Base Address */
 651:Generated_Source\PSoC6\pdl\cmsis/include/core_cm0plus.h **** #define SCB_BASE            (SCS_BASE +  0x0D00UL)                    /*!< System Control Block Bas
 652:Generated_Source\PSoC6\pdl\cmsis/include/core_cm0plus.h **** 
 653:Generated_Source\PSoC6\pdl\cmsis/include/core_cm0plus.h **** #define SCB                 ((SCB_Type       *)     SCB_BASE      )   /*!< SCB configuration struct
 654:Generated_Source\PSoC6\pdl\cmsis/include/core_cm0plus.h **** #define SysTick             ((SysTick_Type   *)     SysTick_BASE  )   /*!< SysTick configuration st
 655:Generated_Source\PSoC6\pdl\cmsis/include/core_cm0plus.h **** #define NVIC                ((NVIC_Type      *)     NVIC_BASE     )   /*!< NVIC configuration struc
 656:Generated_Source\PSoC6\pdl\cmsis/include/core_cm0plus.h **** 
 657:Generated_Source\PSoC6\pdl\cmsis/include/core_cm0plus.h **** #if defined (__MPU_PRESENT) && (__MPU_PRESENT == 1U)
 658:Generated_Source\PSoC6\pdl\cmsis/include/core_cm0plus.h ****   #define MPU_BASE          (SCS_BASE +  0x0D90UL)                    /*!< Memory Protection Unit *
 659:Generated_Source\PSoC6\pdl\cmsis/include/core_cm0plus.h ****   #define MPU               ((MPU_Type       *)     MPU_BASE      )   /*!< Memory Protection Unit *
 660:Generated_Source\PSoC6\pdl\cmsis/include/core_cm0plus.h **** #endif
 661:Generated_Source\PSoC6\pdl\cmsis/include/core_cm0plus.h **** 
 662:Generated_Source\PSoC6\pdl\cmsis/include/core_cm0plus.h **** /*@} */
 663:Generated_Source\PSoC6\pdl\cmsis/include/core_cm0plus.h **** 
 664:Generated_Source\PSoC6\pdl\cmsis/include/core_cm0plus.h **** 
 665:Generated_Source\PSoC6\pdl\cmsis/include/core_cm0plus.h **** 
 666:Generated_Source\PSoC6\pdl\cmsis/include/core_cm0plus.h **** /*******************************************************************************
 667:Generated_Source\PSoC6\pdl\cmsis/include/core_cm0plus.h ****  *                Hardware Abstraction Layer
 668:Generated_Source\PSoC6\pdl\cmsis/include/core_cm0plus.h ****   Core Function Interface contains:
 669:Generated_Source\PSoC6\pdl\cmsis/include/core_cm0plus.h ****   - Core NVIC Functions
 670:Generated_Source\PSoC6\pdl\cmsis/include/core_cm0plus.h ****   - Core SysTick Functions
 671:Generated_Source\PSoC6\pdl\cmsis/include/core_cm0plus.h ****   - Core Register Access Functions
 672:Generated_Source\PSoC6\pdl\cmsis/include/core_cm0plus.h ****  ******************************************************************************/
 673:Generated_Source\PSoC6\pdl\cmsis/include/core_cm0plus.h **** /**
 674:Generated_Source\PSoC6\pdl\cmsis/include/core_cm0plus.h ****   \defgroup CMSIS_Core_FunctionInterface Functions and Instructions Reference
 675:Generated_Source\PSoC6\pdl\cmsis/include/core_cm0plus.h **** */
 676:Generated_Source\PSoC6\pdl\cmsis/include/core_cm0plus.h **** 
 677:Generated_Source\PSoC6\pdl\cmsis/include/core_cm0plus.h **** 
 678:Generated_Source\PSoC6\pdl\cmsis/include/core_cm0plus.h **** 
 679:Generated_Source\PSoC6\pdl\cmsis/include/core_cm0plus.h **** /* ##########################   NVIC functions  #################################### */
 680:Generated_Source\PSoC6\pdl\cmsis/include/core_cm0plus.h **** /**
 681:Generated_Source\PSoC6\pdl\cmsis/include/core_cm0plus.h ****   \ingroup  CMSIS_Core_FunctionInterface
 682:Generated_Source\PSoC6\pdl\cmsis/include/core_cm0plus.h ****   \defgroup CMSIS_Core_NVICFunctions NVIC Functions
 683:Generated_Source\PSoC6\pdl\cmsis/include/core_cm0plus.h ****   \brief    Functions that manage interrupts and exceptions via the NVIC.
 684:Generated_Source\PSoC6\pdl\cmsis/include/core_cm0plus.h ****   @{
 685:Generated_Source\PSoC6\pdl\cmsis/include/core_cm0plus.h ****  */
 686:Generated_Source\PSoC6\pdl\cmsis/include/core_cm0plus.h **** 
 687:Generated_Source\PSoC6\pdl\cmsis/include/core_cm0plus.h **** #ifdef CMSIS_NVIC_VIRTUAL
 688:Generated_Source\PSoC6\pdl\cmsis/include/core_cm0plus.h ****   #ifndef CMSIS_NVIC_VIRTUAL_HEADER_FILE
 689:Generated_Source\PSoC6\pdl\cmsis/include/core_cm0plus.h ****     #define CMSIS_NVIC_VIRTUAL_HEADER_FILE "cmsis_nvic_virtual.h"
 690:Generated_Source\PSoC6\pdl\cmsis/include/core_cm0plus.h ****   #endif
 691:Generated_Source\PSoC6\pdl\cmsis/include/core_cm0plus.h ****   #include CMSIS_NVIC_VIRTUAL_HEADER_FILE
 692:Generated_Source\PSoC6\pdl\cmsis/include/core_cm0plus.h **** #else
 693:Generated_Source\PSoC6\pdl\cmsis/include/core_cm0plus.h **** /*#define NVIC_SetPriorityGrouping    __NVIC_SetPriorityGrouping   not available for Cortex-M0+ */
 694:Generated_Source\PSoC6\pdl\cmsis/include/core_cm0plus.h **** /*#define NVIC_GetPriorityGrouping    __NVIC_GetPriorityGrouping   not available for Cortex-M0+ */
 695:Generated_Source\PSoC6\pdl\cmsis/include/core_cm0plus.h ****   #define NVIC_EnableIRQ              __NVIC_EnableIRQ
 696:Generated_Source\PSoC6\pdl\cmsis/include/core_cm0plus.h ****   #define NVIC_GetEnableIRQ           __NVIC_GetEnableIRQ
 697:Generated_Source\PSoC6\pdl\cmsis/include/core_cm0plus.h ****   #define NVIC_DisableIRQ             __NVIC_DisableIRQ
ARM GAS  C:\Users\seths\AppData\Local\Temp\ccu8EsPT.s 			page 28


 698:Generated_Source\PSoC6\pdl\cmsis/include/core_cm0plus.h ****   #define NVIC_GetPendingIRQ          __NVIC_GetPendingIRQ
 699:Generated_Source\PSoC6\pdl\cmsis/include/core_cm0plus.h ****   #define NVIC_SetPendingIRQ          __NVIC_SetPendingIRQ
 700:Generated_Source\PSoC6\pdl\cmsis/include/core_cm0plus.h ****   #define NVIC_ClearPendingIRQ        __NVIC_ClearPendingIRQ
 701:Generated_Source\PSoC6\pdl\cmsis/include/core_cm0plus.h **** /*#define NVIC_GetActive              __NVIC_GetActive             not available for Cortex-M0+ */
 702:Generated_Source\PSoC6\pdl\cmsis/include/core_cm0plus.h ****   #define NVIC_SetPriority            __NVIC_SetPriority
 703:Generated_Source\PSoC6\pdl\cmsis/include/core_cm0plus.h ****   #define NVIC_GetPriority            __NVIC_GetPriority
 704:Generated_Source\PSoC6\pdl\cmsis/include/core_cm0plus.h ****   #define NVIC_SystemReset            __NVIC_SystemReset
 705:Generated_Source\PSoC6\pdl\cmsis/include/core_cm0plus.h **** #endif /* CMSIS_NVIC_VIRTUAL */
 706:Generated_Source\PSoC6\pdl\cmsis/include/core_cm0plus.h **** 
 707:Generated_Source\PSoC6\pdl\cmsis/include/core_cm0plus.h **** #ifdef CMSIS_VECTAB_VIRTUAL
 708:Generated_Source\PSoC6\pdl\cmsis/include/core_cm0plus.h ****   #ifndef CMSIS_VECTAB_VIRTUAL_HEADER_FILE
 709:Generated_Source\PSoC6\pdl\cmsis/include/core_cm0plus.h ****     #define CMSIS_VECTAB_VIRTUAL_HEADER_FILE "cmsis_vectab_virtual.h"
 710:Generated_Source\PSoC6\pdl\cmsis/include/core_cm0plus.h ****   #endif
 711:Generated_Source\PSoC6\pdl\cmsis/include/core_cm0plus.h ****   #include CMSIS_VECTAB_VIRTUAL_HEADER_FILE
 712:Generated_Source\PSoC6\pdl\cmsis/include/core_cm0plus.h **** #else
 713:Generated_Source\PSoC6\pdl\cmsis/include/core_cm0plus.h ****   #define NVIC_SetVector              __NVIC_SetVector
 714:Generated_Source\PSoC6\pdl\cmsis/include/core_cm0plus.h ****   #define NVIC_GetVector              __NVIC_GetVector
 715:Generated_Source\PSoC6\pdl\cmsis/include/core_cm0plus.h **** #endif  /* (CMSIS_VECTAB_VIRTUAL) */
 716:Generated_Source\PSoC6\pdl\cmsis/include/core_cm0plus.h **** 
 717:Generated_Source\PSoC6\pdl\cmsis/include/core_cm0plus.h **** #define NVIC_USER_IRQ_OFFSET          16
 718:Generated_Source\PSoC6\pdl\cmsis/include/core_cm0plus.h **** 
 719:Generated_Source\PSoC6\pdl\cmsis/include/core_cm0plus.h **** 
 720:Generated_Source\PSoC6\pdl\cmsis/include/core_cm0plus.h **** /* Interrupt Priorities are WORD accessible only under Armv6-M                  */
 721:Generated_Source\PSoC6\pdl\cmsis/include/core_cm0plus.h **** /* The following MACROS handle generation of the register offset and byte masks */
 722:Generated_Source\PSoC6\pdl\cmsis/include/core_cm0plus.h **** #define _BIT_SHIFT(IRQn)         (  ((((uint32_t)(int32_t)(IRQn))         )      &  0x03UL) * 8UL)
 723:Generated_Source\PSoC6\pdl\cmsis/include/core_cm0plus.h **** #define _SHP_IDX(IRQn)           ( (((((uint32_t)(int32_t)(IRQn)) & 0x0FUL)-8UL) >>    2UL)      )
 724:Generated_Source\PSoC6\pdl\cmsis/include/core_cm0plus.h **** #define _IP_IDX(IRQn)            (   (((uint32_t)(int32_t)(IRQn))                >>    2UL)      )
 725:Generated_Source\PSoC6\pdl\cmsis/include/core_cm0plus.h **** 
 726:Generated_Source\PSoC6\pdl\cmsis/include/core_cm0plus.h **** 
 727:Generated_Source\PSoC6\pdl\cmsis/include/core_cm0plus.h **** /**
 728:Generated_Source\PSoC6\pdl\cmsis/include/core_cm0plus.h ****   \brief   Enable Interrupt
 729:Generated_Source\PSoC6\pdl\cmsis/include/core_cm0plus.h ****   \details Enables a device specific interrupt in the NVIC interrupt controller.
 730:Generated_Source\PSoC6\pdl\cmsis/include/core_cm0plus.h ****   \param [in]      IRQn  Device specific interrupt number.
 731:Generated_Source\PSoC6\pdl\cmsis/include/core_cm0plus.h ****   \note    IRQn must not be negative.
 732:Generated_Source\PSoC6\pdl\cmsis/include/core_cm0plus.h ****  */
 733:Generated_Source\PSoC6\pdl\cmsis/include/core_cm0plus.h **** __STATIC_INLINE void __NVIC_EnableIRQ(IRQn_Type IRQn)
 734:Generated_Source\PSoC6\pdl\cmsis/include/core_cm0plus.h **** {
 735:Generated_Source\PSoC6\pdl\cmsis/include/core_cm0plus.h ****   if ((int32_t)(IRQn) >= 0)
  97              		.loc 3 735 0
  98 0028 002A     		cmp	r2, #0
  99 002a 05DB     		blt	.L6
 736:Generated_Source\PSoC6\pdl\cmsis/include/core_cm0plus.h ****   {
 737:Generated_Source\PSoC6\pdl\cmsis/include/core_cm0plus.h ****     NVIC->ISER[0U] = (uint32_t)(1UL << (((uint32_t)IRQn) & 0x1FUL));
 100              		.loc 3 737 0
 101 002c 1F23     		movs	r3, #31
 102 002e 1A40     		ands	r2, r3
 103              	.LVL4:
 104 0030 1E3B     		subs	r3, r3, #30
 105 0032 9340     		lsls	r3, r3, r2
 106 0034 0A4A     		ldr	r2, .L7+24
 107 0036 1360     		str	r3, [r2]
 108              	.L6:
 109              	.LVL5:
 110              	.LBE7:
 111              	.LBE6:
 112              	.LBB8:
 113              	.LBB9:
ARM GAS  C:\Users\seths\AppData\Local\Temp\ccu8EsPT.s 			page 29


 114              		.file 4 "Generated_Source\\PSoC6\\pdl\\drivers/peripheral/scb/cy_scb_i2c.h"
   1:Generated_Source\PSoC6\pdl\drivers/peripheral/scb/cy_scb_i2c.h **** /***************************************************************************//**
   2:Generated_Source\PSoC6\pdl\drivers/peripheral/scb/cy_scb_i2c.h **** * \file cy_scb_i2c.h
   3:Generated_Source\PSoC6\pdl\drivers/peripheral/scb/cy_scb_i2c.h **** * \version 2.20
   4:Generated_Source\PSoC6\pdl\drivers/peripheral/scb/cy_scb_i2c.h **** *
   5:Generated_Source\PSoC6\pdl\drivers/peripheral/scb/cy_scb_i2c.h **** * Provides I2C API declarations of the SCB driver.
   6:Generated_Source\PSoC6\pdl\drivers/peripheral/scb/cy_scb_i2c.h **** *
   7:Generated_Source\PSoC6\pdl\drivers/peripheral/scb/cy_scb_i2c.h **** ********************************************************************************
   8:Generated_Source\PSoC6\pdl\drivers/peripheral/scb/cy_scb_i2c.h **** * \copyright
   9:Generated_Source\PSoC6\pdl\drivers/peripheral/scb/cy_scb_i2c.h **** * Copyright 2016-2018, Cypress Semiconductor Corporation.  All rights reserved.
  10:Generated_Source\PSoC6\pdl\drivers/peripheral/scb/cy_scb_i2c.h **** * You may use this file only in accordance with the license, terms, conditions,
  11:Generated_Source\PSoC6\pdl\drivers/peripheral/scb/cy_scb_i2c.h **** * disclaimers, and limitations in the end user license agreement accompanying
  12:Generated_Source\PSoC6\pdl\drivers/peripheral/scb/cy_scb_i2c.h **** * the software package with which this file was provided.
  13:Generated_Source\PSoC6\pdl\drivers/peripheral/scb/cy_scb_i2c.h **** *******************************************************************************/
  14:Generated_Source\PSoC6\pdl\drivers/peripheral/scb/cy_scb_i2c.h **** 
  15:Generated_Source\PSoC6\pdl\drivers/peripheral/scb/cy_scb_i2c.h **** /**
  16:Generated_Source\PSoC6\pdl\drivers/peripheral/scb/cy_scb_i2c.h **** * \addtogroup group_scb_i2c
  17:Generated_Source\PSoC6\pdl\drivers/peripheral/scb/cy_scb_i2c.h **** * \{
  18:Generated_Source\PSoC6\pdl\drivers/peripheral/scb/cy_scb_i2c.h **** * Driver API for I2C Bus Peripheral
  19:Generated_Source\PSoC6\pdl\drivers/peripheral/scb/cy_scb_i2c.h **** *
  20:Generated_Source\PSoC6\pdl\drivers/peripheral/scb/cy_scb_i2c.h **** * I2C - The Inter-Integrated Circuit (I2C) bus is an industry-standard.
  21:Generated_Source\PSoC6\pdl\drivers/peripheral/scb/cy_scb_i2c.h **** *
  22:Generated_Source\PSoC6\pdl\drivers/peripheral/scb/cy_scb_i2c.h **** * The functions and other declarations used in this part of the driver are in 
  23:Generated_Source\PSoC6\pdl\drivers/peripheral/scb/cy_scb_i2c.h **** * cy_scb_i2c.h. You can also include cy_pdl.h (ModusToolbox only) to get access 
  24:Generated_Source\PSoC6\pdl\drivers/peripheral/scb/cy_scb_i2c.h **** * to all functions and declarations in the PDL.
  25:Generated_Source\PSoC6\pdl\drivers/peripheral/scb/cy_scb_i2c.h **** *
  26:Generated_Source\PSoC6\pdl\drivers/peripheral/scb/cy_scb_i2c.h **** * The I2C peripheral driver provides an API to implement I2C slave, master,
  27:Generated_Source\PSoC6\pdl\drivers/peripheral/scb/cy_scb_i2c.h **** * or master-slave devices based on the SCB hardware block.
  28:Generated_Source\PSoC6\pdl\drivers/peripheral/scb/cy_scb_i2c.h **** * I2C devices based on SCB hardware are compatible with I2C
  29:Generated_Source\PSoC6\pdl\drivers/peripheral/scb/cy_scb_i2c.h **** * Standard-mode, Fast-mode, and Fast-mode Plus specifications as defined in
  30:Generated_Source\PSoC6\pdl\drivers/peripheral/scb/cy_scb_i2c.h **** * the I2C-bus specification.
  31:Generated_Source\PSoC6\pdl\drivers/peripheral/scb/cy_scb_i2c.h **** *
  32:Generated_Source\PSoC6\pdl\drivers/peripheral/scb/cy_scb_i2c.h **** * Features:
  33:Generated_Source\PSoC6\pdl\drivers/peripheral/scb/cy_scb_i2c.h **** * * An industry-standard I2C bus interface
  34:Generated_Source\PSoC6\pdl\drivers/peripheral/scb/cy_scb_i2c.h **** * * Supports slave, master, and master-slave operation
  35:Generated_Source\PSoC6\pdl\drivers/peripheral/scb/cy_scb_i2c.h **** * * Supports standard data rates of 100/400/1000 kbps
  36:Generated_Source\PSoC6\pdl\drivers/peripheral/scb/cy_scb_i2c.h **** * * Hardware Address Match, multiple addresses
  37:Generated_Source\PSoC6\pdl\drivers/peripheral/scb/cy_scb_i2c.h **** * * Wake from Deep Sleep on Address Match
  38:Generated_Source\PSoC6\pdl\drivers/peripheral/scb/cy_scb_i2c.h **** *
  39:Generated_Source\PSoC6\pdl\drivers/peripheral/scb/cy_scb_i2c.h **** ********************************************************************************
  40:Generated_Source\PSoC6\pdl\drivers/peripheral/scb/cy_scb_i2c.h **** * \section group_scb_i2c_configuration Configuration Considerations
  41:Generated_Source\PSoC6\pdl\drivers/peripheral/scb/cy_scb_i2c.h **** ********************************************************************************
  42:Generated_Source\PSoC6\pdl\drivers/peripheral/scb/cy_scb_i2c.h **** * The I2C driver configuration can be divided to number of sequential
  43:Generated_Source\PSoC6\pdl\drivers/peripheral/scb/cy_scb_i2c.h **** * steps listed below:
  44:Generated_Source\PSoC6\pdl\drivers/peripheral/scb/cy_scb_i2c.h **** * * \ref group_scb_i2c_config
  45:Generated_Source\PSoC6\pdl\drivers/peripheral/scb/cy_scb_i2c.h **** * * \ref group_scb_i2c_pins
  46:Generated_Source\PSoC6\pdl\drivers/peripheral/scb/cy_scb_i2c.h **** * * \ref group_scb_i2c_clock
  47:Generated_Source\PSoC6\pdl\drivers/peripheral/scb/cy_scb_i2c.h **** * * \ref group_scb_i2c_data_rate
  48:Generated_Source\PSoC6\pdl\drivers/peripheral/scb/cy_scb_i2c.h **** * * \ref group_scb_i2c_intr
  49:Generated_Source\PSoC6\pdl\drivers/peripheral/scb/cy_scb_i2c.h **** * * \ref group_scb_i2c_enable
  50:Generated_Source\PSoC6\pdl\drivers/peripheral/scb/cy_scb_i2c.h **** *
  51:Generated_Source\PSoC6\pdl\drivers/peripheral/scb/cy_scb_i2c.h **** * \note
  52:Generated_Source\PSoC6\pdl\drivers/peripheral/scb/cy_scb_i2c.h **** * I2C driver is built on top of the SCB hardware block. The SCB3 instance is
  53:Generated_Source\PSoC6\pdl\drivers/peripheral/scb/cy_scb_i2c.h **** * used as an example for all code snippets. Modify the code to match your
  54:Generated_Source\PSoC6\pdl\drivers/peripheral/scb/cy_scb_i2c.h **** * design.
  55:Generated_Source\PSoC6\pdl\drivers/peripheral/scb/cy_scb_i2c.h **** *
  56:Generated_Source\PSoC6\pdl\drivers/peripheral/scb/cy_scb_i2c.h **** ********************************************************************************
ARM GAS  C:\Users\seths\AppData\Local\Temp\ccu8EsPT.s 			page 30


  57:Generated_Source\PSoC6\pdl\drivers/peripheral/scb/cy_scb_i2c.h **** * \subsection group_scb_i2c_config Configure I2C
  58:Generated_Source\PSoC6\pdl\drivers/peripheral/scb/cy_scb_i2c.h **** ********************************************************************************
  59:Generated_Source\PSoC6\pdl\drivers/peripheral/scb/cy_scb_i2c.h **** * To set up the I2C  driver, provide the configuration parameters in the
  60:Generated_Source\PSoC6\pdl\drivers/peripheral/scb/cy_scb_i2c.h **** * \ref cy_stc_scb_i2c_config_t structure. Provide i2cMode to the select
  61:Generated_Source\PSoC6\pdl\drivers/peripheral/scb/cy_scb_i2c.h **** * operation mode slave, master or master-slave. The useRxFifo and useTxFifo 
  62:Generated_Source\PSoC6\pdl\drivers/peripheral/scb/cy_scb_i2c.h **** * parameters specify if RX and TX FIFO is used during operation. Typically, both
  63:Generated_Source\PSoC6\pdl\drivers/peripheral/scb/cy_scb_i2c.h **** * FIFOs should be enabled to reduce possibility of clock stringing. However, 
  64:Generated_Source\PSoC6\pdl\drivers/peripheral/scb/cy_scb_i2c.h **** * using RX FIFO has side effects that needs to be taken into account 
  65:Generated_Source\PSoC6\pdl\drivers/peripheral/scb/cy_scb_i2c.h **** * (see useRxFifo field description in \ref cy_stc_scb_i2c_config_t structure). 
  66:Generated_Source\PSoC6\pdl\drivers/peripheral/scb/cy_scb_i2c.h **** * For master modes, parameters lowPhaseDutyCycle, highPhaseDutyCycle and 
  67:Generated_Source\PSoC6\pdl\drivers/peripheral/scb/cy_scb_i2c.h **** * enableDigitalFilter can be used to define output data rate (refer to section 
  68:Generated_Source\PSoC6\pdl\drivers/peripheral/scb/cy_scb_i2c.h **** * \ref group_scb_i2c_data_rate for more information).
  69:Generated_Source\PSoC6\pdl\drivers/peripheral/scb/cy_scb_i2c.h **** * For slave mode, provide the slaveAddress and slaveAddressMask. The other 
  70:Generated_Source\PSoC6\pdl\drivers/peripheral/scb/cy_scb_i2c.h **** * parameters are optional for operation.\n
  71:Generated_Source\PSoC6\pdl\drivers/peripheral/scb/cy_scb_i2c.h **** * To initialize the driver, call \ref Cy_SCB_I2C_Init
  72:Generated_Source\PSoC6\pdl\drivers/peripheral/scb/cy_scb_i2c.h **** * function providing a pointer to the populated \ref cy_stc_scb_i2c_config_t
  73:Generated_Source\PSoC6\pdl\drivers/peripheral/scb/cy_scb_i2c.h **** * structure and the allocated \ref cy_stc_scb_i2c_context_t structure.
  74:Generated_Source\PSoC6\pdl\drivers/peripheral/scb/cy_scb_i2c.h **** *
  75:Generated_Source\PSoC6\pdl\drivers/peripheral/scb/cy_scb_i2c.h **** * \snippet SCB_CompDatasheet_sut_01_revA.cydsn\i2c_snippets.c I2C_CFG
  76:Generated_Source\PSoC6\pdl\drivers/peripheral/scb/cy_scb_i2c.h **** *
  77:Generated_Source\PSoC6\pdl\drivers/peripheral/scb/cy_scb_i2c.h **** * Set up I2C slave read and write buffer before enabling its
  78:Generated_Source\PSoC6\pdl\drivers/peripheral/scb/cy_scb_i2c.h **** * operation using \ref Cy_SCB_I2C_SlaveConfigReadBuf and \ref
  79:Generated_Source\PSoC6\pdl\drivers/peripheral/scb/cy_scb_i2c.h **** * Cy_SCB_I2C_SlaveConfigWriteBuf appropriately. Note that the master reads
  80:Generated_Source\PSoC6\pdl\drivers/peripheral/scb/cy_scb_i2c.h **** * data from the slave read buffer and writes data into the slave write buffer.
  81:Generated_Source\PSoC6\pdl\drivers/peripheral/scb/cy_scb_i2c.h **** *
  82:Generated_Source\PSoC6\pdl\drivers/peripheral/scb/cy_scb_i2c.h **** * \snippet SCB_CompDatasheet_sut_01_revA.cydsn\i2c_snippets.c I2C_CFG_BUFFER
  83:Generated_Source\PSoC6\pdl\drivers/peripheral/scb/cy_scb_i2c.h **** *
  84:Generated_Source\PSoC6\pdl\drivers/peripheral/scb/cy_scb_i2c.h **** ********************************************************************************
  85:Generated_Source\PSoC6\pdl\drivers/peripheral/scb/cy_scb_i2c.h **** * \subsection group_scb_i2c_pins Assign and Configure Pins
  86:Generated_Source\PSoC6\pdl\drivers/peripheral/scb/cy_scb_i2c.h **** ********************************************************************************
  87:Generated_Source\PSoC6\pdl\drivers/peripheral/scb/cy_scb_i2c.h **** * Only dedicated SCB pins can be used for I2C operation. The HSIOM
  88:Generated_Source\PSoC6\pdl\drivers/peripheral/scb/cy_scb_i2c.h **** * register must be configured to connect dedicated SCB I2C pins to the 
  89:Generated_Source\PSoC6\pdl\drivers/peripheral/scb/cy_scb_i2c.h **** * SCB block. Also the I2C pins must be configured in Open-Drain, Drives Low mode 
  90:Generated_Source\PSoC6\pdl\drivers/peripheral/scb/cy_scb_i2c.h **** * (this pins  configuration implies usage of external pull-up resistors):
  91:Generated_Source\PSoC6\pdl\drivers/peripheral/scb/cy_scb_i2c.h **** *
  92:Generated_Source\PSoC6\pdl\drivers/peripheral/scb/cy_scb_i2c.h **** * \snippet SCB_CompDatasheet_sut_01_revA.cydsn\i2c_snippets.c I2C_CFG_PINS
  93:Generated_Source\PSoC6\pdl\drivers/peripheral/scb/cy_scb_i2c.h **** *
  94:Generated_Source\PSoC6\pdl\drivers/peripheral/scb/cy_scb_i2c.h **** * \note
  95:Generated_Source\PSoC6\pdl\drivers/peripheral/scb/cy_scb_i2c.h **** * The alternative pins configuration is Resistive Pull-ups which implies usage
  96:Generated_Source\PSoC6\pdl\drivers/peripheral/scb/cy_scb_i2c.h **** * internal pull-up resistors. This configuration is not recommended because
  97:Generated_Source\PSoC6\pdl\drivers/peripheral/scb/cy_scb_i2c.h **** * resistor value is fixed and cannot be used for all supported data rates.
  98:Generated_Source\PSoC6\pdl\drivers/peripheral/scb/cy_scb_i2c.h **** * Refer to the device datasheet parameter RPULLUP for resistor value specifications.
  99:Generated_Source\PSoC6\pdl\drivers/peripheral/scb/cy_scb_i2c.h **** *
 100:Generated_Source\PSoC6\pdl\drivers/peripheral/scb/cy_scb_i2c.h **** ********************************************************************************
 101:Generated_Source\PSoC6\pdl\drivers/peripheral/scb/cy_scb_i2c.h **** * \subsection group_scb_i2c_clock Assign Clock Divider
 102:Generated_Source\PSoC6\pdl\drivers/peripheral/scb/cy_scb_i2c.h **** ********************************************************************************
 103:Generated_Source\PSoC6\pdl\drivers/peripheral/scb/cy_scb_i2c.h **** * A clock source must be connected to the SCB block to oversample input and
 104:Generated_Source\PSoC6\pdl\drivers/peripheral/scb/cy_scb_i2c.h **** * output signals, in this document this clock will be referred as clk_scb.
 105:Generated_Source\PSoC6\pdl\drivers/peripheral/scb/cy_scb_i2c.h **** * You must use one of the 8-bit or 16-bit dividers. Use the \ref group_sysclk 
 106:Generated_Source\PSoC6\pdl\drivers/peripheral/scb/cy_scb_i2c.h **** * driver API to do this.
 107:Generated_Source\PSoC6\pdl\drivers/peripheral/scb/cy_scb_i2c.h **** *
 108:Generated_Source\PSoC6\pdl\drivers/peripheral/scb/cy_scb_i2c.h **** * \snippet SCB_CompDatasheet_sut_01_revA.cydsn\i2c_snippets.c I2C_CFG_ASSIGN_CLOCK
 109:Generated_Source\PSoC6\pdl\drivers/peripheral/scb/cy_scb_i2c.h **** *
 110:Generated_Source\PSoC6\pdl\drivers/peripheral/scb/cy_scb_i2c.h **** ********************************************************************************
 111:Generated_Source\PSoC6\pdl\drivers/peripheral/scb/cy_scb_i2c.h **** * \subsection group_scb_i2c_data_rate Configure Data Rate
 112:Generated_Source\PSoC6\pdl\drivers/peripheral/scb/cy_scb_i2c.h **** ********************************************************************************
 113:Generated_Source\PSoC6\pdl\drivers/peripheral/scb/cy_scb_i2c.h **** * To get I2C slave operation with the desired data rate, the clk_scb must be
ARM GAS  C:\Users\seths\AppData\Local\Temp\ccu8EsPT.s 			page 31


 114:Generated_Source\PSoC6\pdl\drivers/peripheral/scb/cy_scb_i2c.h **** * fast enough to provide sufficient oversampling. Use the
 115:Generated_Source\PSoC6\pdl\drivers/peripheral/scb/cy_scb_i2c.h **** * \ref group_sysclk driver API to do this.
 116:Generated_Source\PSoC6\pdl\drivers/peripheral/scb/cy_scb_i2c.h **** *
 117:Generated_Source\PSoC6\pdl\drivers/peripheral/scb/cy_scb_i2c.h **** * \snippet SCB_CompDatasheet_sut_01_revA.cydsn\i2c_snippets.c I2C_CFG_DATA_RATE_SLAVE
 118:Generated_Source\PSoC6\pdl\drivers/peripheral/scb/cy_scb_i2c.h **** *
 119:Generated_Source\PSoC6\pdl\drivers/peripheral/scb/cy_scb_i2c.h **** * To get I2C master operation with the desired data rate, the source clock
 120:Generated_Source\PSoC6\pdl\drivers/peripheral/scb/cy_scb_i2c.h **** * frequency and SCL low and high phase duration must be configured. Use the
 121:Generated_Source\PSoC6\pdl\drivers/peripheral/scb/cy_scb_i2c.h **** * \ref group_sysclk driver API to configure source clock frequency. Then call
 122:Generated_Source\PSoC6\pdl\drivers/peripheral/scb/cy_scb_i2c.h **** * \ref Cy_SCB_I2C_SetDataRate to set the SCL low, high phase duration and 
 123:Generated_Source\PSoC6\pdl\drivers/peripheral/scb/cy_scb_i2c.h **** * digital filter. This function sets SCL low and high phase settings based on 
 124:Generated_Source\PSoC6\pdl\drivers/peripheral/scb/cy_scb_i2c.h **** * source clock frequency.
 125:Generated_Source\PSoC6\pdl\drivers/peripheral/scb/cy_scb_i2c.h **** *
 126:Generated_Source\PSoC6\pdl\drivers/peripheral/scb/cy_scb_i2c.h **** * \snippet SCB_CompDatasheet_sut_01_revA.cydsn\i2c_snippets.c I2C_CFG_DATA_RATE_MASTER
 127:Generated_Source\PSoC6\pdl\drivers/peripheral/scb/cy_scb_i2c.h **** *
 128:Generated_Source\PSoC6\pdl\drivers/peripheral/scb/cy_scb_i2c.h **** * Alternatively, the low, high phase and digital filter can be set directly 
 129:Generated_Source\PSoC6\pdl\drivers/peripheral/scb/cy_scb_i2c.h **** * using configuration structure \ref cy_stc_scb_i2c_config_t fields 
 130:Generated_Source\PSoC6\pdl\drivers/peripheral/scb/cy_scb_i2c.h **** * lowPhaseDutyCycle, highPhaseDutyCycle and enableDigitalFilter appropriately.\n
 131:Generated_Source\PSoC6\pdl\drivers/peripheral/scb/cy_scb_i2c.h **** * <b>Refer to the technical reference manual (TRM) section I2C sub-section
 132:Generated_Source\PSoC6\pdl\drivers/peripheral/scb/cy_scb_i2c.h **** * Oversampling and Bit Rate to get information how to configure I2C to run with
 133:Generated_Source\PSoC6\pdl\drivers/peripheral/scb/cy_scb_i2c.h **** * the desired data rate.</b>
 134:Generated_Source\PSoC6\pdl\drivers/peripheral/scb/cy_scb_i2c.h **** *
 135:Generated_Source\PSoC6\pdl\drivers/peripheral/scb/cy_scb_i2c.h **** * \note
 136:Generated_Source\PSoC6\pdl\drivers/peripheral/scb/cy_scb_i2c.h **** * For I2C slave, the analog filter is used for all supported data rates. \n
 137:Generated_Source\PSoC6\pdl\drivers/peripheral/scb/cy_scb_i2c.h **** * For I2C master, the analog filter is used for Standard and Fast modes and the
 138:Generated_Source\PSoC6\pdl\drivers/peripheral/scb/cy_scb_i2c.h **** * digital filter for Fast Plus mode.
 139:Generated_Source\PSoC6\pdl\drivers/peripheral/scb/cy_scb_i2c.h **** *
 140:Generated_Source\PSoC6\pdl\drivers/peripheral/scb/cy_scb_i2c.h **** ********************************************************************************
 141:Generated_Source\PSoC6\pdl\drivers/peripheral/scb/cy_scb_i2c.h **** * \subsection group_scb_i2c_intr Configure Interrupt
 142:Generated_Source\PSoC6\pdl\drivers/peripheral/scb/cy_scb_i2c.h **** ********************************************************************************
 143:Generated_Source\PSoC6\pdl\drivers/peripheral/scb/cy_scb_i2c.h **** * The interrupt is mandatory for I2C operation. The exception is the when only  
 144:Generated_Source\PSoC6\pdl\drivers/peripheral/scb/cy_scb_i2c.h **** * the \ref group_scb_i2c_master_low_level_functions functions are used.
 145:Generated_Source\PSoC6\pdl\drivers/peripheral/scb/cy_scb_i2c.h **** * The driver provides three interrupt functions: \ref Cy_SCB_I2C_Interrupt,
 146:Generated_Source\PSoC6\pdl\drivers/peripheral/scb/cy_scb_i2c.h **** * \ref Cy_SCB_I2C_SlaveInterrupt, and \ref Cy_SCB_I2C_MasterInterrupt. One of
 147:Generated_Source\PSoC6\pdl\drivers/peripheral/scb/cy_scb_i2c.h **** * these functions must be called in the interrupt handler for the selected SCB
 148:Generated_Source\PSoC6\pdl\drivers/peripheral/scb/cy_scb_i2c.h **** * instance. Call \ref Cy_SCB_I2C_SlaveInterrupt when I2C is configured to
 149:Generated_Source\PSoC6\pdl\drivers/peripheral/scb/cy_scb_i2c.h **** * operate as a slave, \ref Cy_SCB_I2C_MasterInterrupt when I2C is configured
 150:Generated_Source\PSoC6\pdl\drivers/peripheral/scb/cy_scb_i2c.h **** * to operate as a master and \ref Cy_SCB_I2C_Interrupt when I2C is configured
 151:Generated_Source\PSoC6\pdl\drivers/peripheral/scb/cy_scb_i2c.h **** * to operate as master and slave. Using the slave- or master-specific interrupt
 152:Generated_Source\PSoC6\pdl\drivers/peripheral/scb/cy_scb_i2c.h **** * function allows reducing the flash consumed by the I2C driver. Also this
 153:Generated_Source\PSoC6\pdl\drivers/peripheral/scb/cy_scb_i2c.h **** * interrupt must be enabled in the NVIC otherwise it will not work.
 154:Generated_Source\PSoC6\pdl\drivers/peripheral/scb/cy_scb_i2c.h **** * \note
 155:Generated_Source\PSoC6\pdl\drivers/peripheral/scb/cy_scb_i2c.h **** * The I2C driver documentation refers to the \ref Cy_SCB_I2C_Interrupt function
 156:Generated_Source\PSoC6\pdl\drivers/peripheral/scb/cy_scb_i2c.h **** * when interrupt processing is mandatory for the operation. This is done to
 157:Generated_Source\PSoC6\pdl\drivers/peripheral/scb/cy_scb_i2c.h **** * simplify the readability of the driver's documentation. The application should
 158:Generated_Source\PSoC6\pdl\drivers/peripheral/scb/cy_scb_i2c.h **** *  call the slave- or master-specific interrupt functions \ref Cy_SCB_I2C_SlaveInterrupt
 159:Generated_Source\PSoC6\pdl\drivers/peripheral/scb/cy_scb_i2c.h **** * or \ref Cy_SCB_I2C_MasterInterrupt, when appropriate.
 160:Generated_Source\PSoC6\pdl\drivers/peripheral/scb/cy_scb_i2c.h **** *
 161:Generated_Source\PSoC6\pdl\drivers/peripheral/scb/cy_scb_i2c.h **** * \snippet SCB_CompDatasheet_sut_01_revA.cydsn\i2c_snippets.c I2C_INTR_A
 162:Generated_Source\PSoC6\pdl\drivers/peripheral/scb/cy_scb_i2c.h **** * \snippet SCB_CompDatasheet_sut_01_revA.cydsn\i2c_snippets.c I2C_INTR_B
 163:Generated_Source\PSoC6\pdl\drivers/peripheral/scb/cy_scb_i2c.h **** *
 164:Generated_Source\PSoC6\pdl\drivers/peripheral/scb/cy_scb_i2c.h **** ********************************************************************************
 165:Generated_Source\PSoC6\pdl\drivers/peripheral/scb/cy_scb_i2c.h **** * \subsection group_scb_i2c_enable Enable I2C
 166:Generated_Source\PSoC6\pdl\drivers/peripheral/scb/cy_scb_i2c.h **** ********************************************************************************
 167:Generated_Source\PSoC6\pdl\drivers/peripheral/scb/cy_scb_i2c.h **** * Finally, enable the I2C operation by calling \ref Cy_SCB_I2C_Enable. Then I2C
 168:Generated_Source\PSoC6\pdl\drivers/peripheral/scb/cy_scb_i2c.h **** * slave starts respond to the assigned address and I2C master ready to execute
 169:Generated_Source\PSoC6\pdl\drivers/peripheral/scb/cy_scb_i2c.h **** * transfers.
 170:Generated_Source\PSoC6\pdl\drivers/peripheral/scb/cy_scb_i2c.h **** *
ARM GAS  C:\Users\seths\AppData\Local\Temp\ccu8EsPT.s 			page 32


 171:Generated_Source\PSoC6\pdl\drivers/peripheral/scb/cy_scb_i2c.h **** * \snippet SCB_CompDatasheet_sut_01_revA.cydsn\i2c_snippets.c I2C_ENABLE
 172:Generated_Source\PSoC6\pdl\drivers/peripheral/scb/cy_scb_i2c.h **** *
 173:Generated_Source\PSoC6\pdl\drivers/peripheral/scb/cy_scb_i2c.h **** * \section group_scb_i2c_use_cases Common Use Cases
 174:Generated_Source\PSoC6\pdl\drivers/peripheral/scb/cy_scb_i2c.h **** *
 175:Generated_Source\PSoC6\pdl\drivers/peripheral/scb/cy_scb_i2c.h **** ********************************************************************************
 176:Generated_Source\PSoC6\pdl\drivers/peripheral/scb/cy_scb_i2c.h **** * \subsection group_scb_i2c_master_mode Master Operation
 177:Generated_Source\PSoC6\pdl\drivers/peripheral/scb/cy_scb_i2c.h **** ********************************************************************************
 178:Generated_Source\PSoC6\pdl\drivers/peripheral/scb/cy_scb_i2c.h **** * The master API is divided into two categories:
 179:Generated_Source\PSoC6\pdl\drivers/peripheral/scb/cy_scb_i2c.h **** * \ref group_scb_i2c_master_high_level_functions and
 180:Generated_Source\PSoC6\pdl\drivers/peripheral/scb/cy_scb_i2c.h **** * \ref group_scb_i2c_master_low_level_functions. Therefore, there are two
 181:Generated_Source\PSoC6\pdl\drivers/peripheral/scb/cy_scb_i2c.h **** * methods for initiating I2C master transactions using either <b>Low-Level or
 182:Generated_Source\PSoC6\pdl\drivers/peripheral/scb/cy_scb_i2c.h **** * High-Level</b> API. These two methods are described below. Only one method
 183:Generated_Source\PSoC6\pdl\drivers/peripheral/scb/cy_scb_i2c.h **** * should be used at a time. <b>They should not be mixed.</b>
 184:Generated_Source\PSoC6\pdl\drivers/peripheral/scb/cy_scb_i2c.h **** *
 185:Generated_Source\PSoC6\pdl\drivers/peripheral/scb/cy_scb_i2c.h **** ********************************************************************************
 186:Generated_Source\PSoC6\pdl\drivers/peripheral/scb/cy_scb_i2c.h **** * \subsubsection  group_scb_i2c_master_hl Use High-Level Functions
 187:Generated_Source\PSoC6\pdl\drivers/peripheral/scb/cy_scb_i2c.h **** ********************************************************************************
 188:Generated_Source\PSoC6\pdl\drivers/peripheral/scb/cy_scb_i2c.h **** *  Call \ref Cy_SCB_I2C_MasterRead or \ref Cy_SCB_I2C_MasterWrite to
 189:Generated_Source\PSoC6\pdl\drivers/peripheral/scb/cy_scb_i2c.h **** * communicate with the slave. These functions do not block and only start a
 190:Generated_Source\PSoC6\pdl\drivers/peripheral/scb/cy_scb_i2c.h **** * transaction. After a transaction starts, the \ref Cy_SCB_I2C_Interrupt
 191:Generated_Source\PSoC6\pdl\drivers/peripheral/scb/cy_scb_i2c.h **** * handles further data transaction until its completion (successfully or 
 192:Generated_Source\PSoC6\pdl\drivers/peripheral/scb/cy_scb_i2c.h **** * with error occurring). To monitor the transaction,
 193:Generated_Source\PSoC6\pdl\drivers/peripheral/scb/cy_scb_i2c.h **** * use \ref Cy_SCB_I2C_MasterGetStatus or register callback function using
 194:Generated_Source\PSoC6\pdl\drivers/peripheral/scb/cy_scb_i2c.h **** * \ref Cy_SCB_I2C_RegisterEventCallback to be notified about
 195:Generated_Source\PSoC6\pdl\drivers/peripheral/scb/cy_scb_i2c.h **** * \ref group_scb_i2c_macros_callback_events.
 196:Generated_Source\PSoC6\pdl\drivers/peripheral/scb/cy_scb_i2c.h **** *
 197:Generated_Source\PSoC6\pdl\drivers/peripheral/scb/cy_scb_i2c.h **** * \snippet SCB_CompDatasheet_sut_01_revA.cydsn\i2c_snippets.c I2C_MASTER_WRITE_READ_INT
 198:Generated_Source\PSoC6\pdl\drivers/peripheral/scb/cy_scb_i2c.h **** *
 199:Generated_Source\PSoC6\pdl\drivers/peripheral/scb/cy_scb_i2c.h **** ********************************************************************************
 200:Generated_Source\PSoC6\pdl\drivers/peripheral/scb/cy_scb_i2c.h **** * \subsubsection group_scb_i2c_master_ll Use Low-Level Functions
 201:Generated_Source\PSoC6\pdl\drivers/peripheral/scb/cy_scb_i2c.h **** ********************************************************************************
 202:Generated_Source\PSoC6\pdl\drivers/peripheral/scb/cy_scb_i2c.h **** * Call \ref Cy_SCB_I2C_MasterSendStart to generate a start, send an address
 203:Generated_Source\PSoC6\pdl\drivers/peripheral/scb/cy_scb_i2c.h **** * with the Read/Write direction bit, and receive acknowledgment. After the
 204:Generated_Source\PSoC6\pdl\drivers/peripheral/scb/cy_scb_i2c.h **** * address is ACKed by the slave, the transaction can be continued by calling
 205:Generated_Source\PSoC6\pdl\drivers/peripheral/scb/cy_scb_i2c.h **** * \ref Cy_SCB_I2C_MasterReadByte or \ref Cy_SCB_I2C_MasterWriteByte depending
 206:Generated_Source\PSoC6\pdl\drivers/peripheral/scb/cy_scb_i2c.h **** * on its direction. These functions handle one byte per call. Therefore,
 207:Generated_Source\PSoC6\pdl\drivers/peripheral/scb/cy_scb_i2c.h **** * they should be called for each byte in the transaction. Note that for the
 208:Generated_Source\PSoC6\pdl\drivers/peripheral/scb/cy_scb_i2c.h **** * Read transaction, the last byte must be NAKed. To complete the current
 209:Generated_Source\PSoC6\pdl\drivers/peripheral/scb/cy_scb_i2c.h **** * transaction, call \ref Cy_SCB_I2C_MasterSendStop or call
 210:Generated_Source\PSoC6\pdl\drivers/peripheral/scb/cy_scb_i2c.h **** * \ref Cy_SCB_I2C_MasterSendReStart to complete the current transaction and
 211:Generated_Source\PSoC6\pdl\drivers/peripheral/scb/cy_scb_i2c.h **** * start a new one. Typically, do a restart to change the transaction
 212:Generated_Source\PSoC6\pdl\drivers/peripheral/scb/cy_scb_i2c.h **** * direction without releasing the bus from the master control.
 213:Generated_Source\PSoC6\pdl\drivers/peripheral/scb/cy_scb_i2c.h **** * The Low-Level functions are blocking and do not require calling
 214:Generated_Source\PSoC6\pdl\drivers/peripheral/scb/cy_scb_i2c.h **** * \ref Cy_SCB_I2C_Interrupt inside the interrupt handler. Using these
 215:Generated_Source\PSoC6\pdl\drivers/peripheral/scb/cy_scb_i2c.h **** * functions requires extensive knowledge of the I2C protocol to execute
 216:Generated_Source\PSoC6\pdl\drivers/peripheral/scb/cy_scb_i2c.h **** * transactions correctly.
 217:Generated_Source\PSoC6\pdl\drivers/peripheral/scb/cy_scb_i2c.h **** *
 218:Generated_Source\PSoC6\pdl\drivers/peripheral/scb/cy_scb_i2c.h **** * <b>Master Write Operation</b>
 219:Generated_Source\PSoC6\pdl\drivers/peripheral/scb/cy_scb_i2c.h **** * \snippet SCB_CompDatasheet_sut_01_revA.cydsn\i2c_snippets.c I2C_MASTER_WRITE_MANUAL
 220:Generated_Source\PSoC6\pdl\drivers/peripheral/scb/cy_scb_i2c.h **** *
 221:Generated_Source\PSoC6\pdl\drivers/peripheral/scb/cy_scb_i2c.h **** * <b>Master Read Operation</b>
 222:Generated_Source\PSoC6\pdl\drivers/peripheral/scb/cy_scb_i2c.h **** * \snippet SCB_CompDatasheet_sut_01_revA.cydsn\i2c_snippets.c I2C_MASTER_READ_MANUAL
 223:Generated_Source\PSoC6\pdl\drivers/peripheral/scb/cy_scb_i2c.h **** *
 224:Generated_Source\PSoC6\pdl\drivers/peripheral/scb/cy_scb_i2c.h **** ********************************************************************************
 225:Generated_Source\PSoC6\pdl\drivers/peripheral/scb/cy_scb_i2c.h **** * \subsection group_scb_i2c_slave Slave Operation
 226:Generated_Source\PSoC6\pdl\drivers/peripheral/scb/cy_scb_i2c.h **** ********************************************************************************
 227:Generated_Source\PSoC6\pdl\drivers/peripheral/scb/cy_scb_i2c.h **** * Slave operation requires the \ref Cy_SCB_I2C_Interrupt be
ARM GAS  C:\Users\seths\AppData\Local\Temp\ccu8EsPT.s 			page 33


 228:Generated_Source\PSoC6\pdl\drivers/peripheral/scb/cy_scb_i2c.h **** * called inside the interrupt handler. The read and write buffers must
 229:Generated_Source\PSoC6\pdl\drivers/peripheral/scb/cy_scb_i2c.h **** * be provided for the slave to enable communication with the master. Use
 230:Generated_Source\PSoC6\pdl\drivers/peripheral/scb/cy_scb_i2c.h **** * \ref Cy_SCB_I2C_SlaveConfigReadBuf and \ref Cy_SCB_I2C_SlaveConfigWriteBuf
 231:Generated_Source\PSoC6\pdl\drivers/peripheral/scb/cy_scb_i2c.h **** * for this purpose. Note that after transaction completion the buffer must be
 232:Generated_Source\PSoC6\pdl\drivers/peripheral/scb/cy_scb_i2c.h **** * configured again. Otherwise, the same buffer is used starting from the point
 233:Generated_Source\PSoC6\pdl\drivers/peripheral/scb/cy_scb_i2c.h **** * where the master stopped a previous transaction.
 234:Generated_Source\PSoC6\pdl\drivers/peripheral/scb/cy_scb_i2c.h **** * For example: The read buffer is configured to be 10 bytes and the master reads
 235:Generated_Source\PSoC6\pdl\drivers/peripheral/scb/cy_scb_i2c.h **** * 8 bytes. If the read buffer is not configured again, the next master read
 236:Generated_Source\PSoC6\pdl\drivers/peripheral/scb/cy_scb_i2c.h **** * will start from the 9th byte.
 237:Generated_Source\PSoC6\pdl\drivers/peripheral/scb/cy_scb_i2c.h **** * To monitor the transaction status, use \ref Cy_SCB_I2C_SlaveGetStatus or
 238:Generated_Source\PSoC6\pdl\drivers/peripheral/scb/cy_scb_i2c.h **** * use \ref Cy_SCB_I2C_RegisterEventCallback to register a callback function
 239:Generated_Source\PSoC6\pdl\drivers/peripheral/scb/cy_scb_i2c.h **** * to be notified about \ref group_scb_i2c_macros_callback_events.
 240:Generated_Source\PSoC6\pdl\drivers/peripheral/scb/cy_scb_i2c.h **** *
 241:Generated_Source\PSoC6\pdl\drivers/peripheral/scb/cy_scb_i2c.h **** * <b>Get Slave Events Notification</b>
 242:Generated_Source\PSoC6\pdl\drivers/peripheral/scb/cy_scb_i2c.h **** * \snippet SCB_CompDatasheet_sut_01_revA.cydsn\i2c_snippets.c I2C_SLAVE_REG_CALLBACK
 243:Generated_Source\PSoC6\pdl\drivers/peripheral/scb/cy_scb_i2c.h **** * \snippet SCB_CompDatasheet_sut_01_revA.cydsn\i2c_snippets.c I2C_SLAVE_NOTIFICATION
 244:Generated_Source\PSoC6\pdl\drivers/peripheral/scb/cy_scb_i2c.h **** *
 245:Generated_Source\PSoC6\pdl\drivers/peripheral/scb/cy_scb_i2c.h **** * <b>Polling Slave Completion Events</b>
 246:Generated_Source\PSoC6\pdl\drivers/peripheral/scb/cy_scb_i2c.h **** * \snippet SCB_CompDatasheet_sut_01_revA.cydsn\i2c_snippets.c I2C_SLAVE_POLLING
 247:Generated_Source\PSoC6\pdl\drivers/peripheral/scb/cy_scb_i2c.h **** *
 248:Generated_Source\PSoC6\pdl\drivers/peripheral/scb/cy_scb_i2c.h **** * \note
 249:Generated_Source\PSoC6\pdl\drivers/peripheral/scb/cy_scb_i2c.h **** * All slave API (except \ref Cy_SCB_I2C_SlaveAbortRead and
 250:Generated_Source\PSoC6\pdl\drivers/peripheral/scb/cy_scb_i2c.h **** * \ref Cy_SCB_I2C_SlaveAbortWrite) <b>are not interrupt-protected</b> and to
 251:Generated_Source\PSoC6\pdl\drivers/peripheral/scb/cy_scb_i2c.h **** * prevent a race condition, they should be protected from the I2C interruption
 252:Generated_Source\PSoC6\pdl\drivers/peripheral/scb/cy_scb_i2c.h **** * in the place where they are called. The code snippet Polling Slave 
 253:Generated_Source\PSoC6\pdl\drivers/peripheral/scb/cy_scb_i2c.h **** * Completion Events above shows how to prevent a race condition when detect 
 254:Generated_Source\PSoC6\pdl\drivers/peripheral/scb/cy_scb_i2c.h **** * transfer completion and update I2C slave write buffer. 
 255:Generated_Source\PSoC6\pdl\drivers/peripheral/scb/cy_scb_i2c.h **** * The simple example of race condition is: application updates slave read 
 256:Generated_Source\PSoC6\pdl\drivers/peripheral/scb/cy_scb_i2c.h **** * buffer the I2C master starts read transfer. The I2C interrupts read buffer 
 257:Generated_Source\PSoC6\pdl\drivers/peripheral/scb/cy_scb_i2c.h **** * update and I2C interrupt loads current read buffer content in the TX FIFO . 
 258:Generated_Source\PSoC6\pdl\drivers/peripheral/scb/cy_scb_i2c.h **** * After I2C interrupt returns the application updates remaining part of the read 
 259:Generated_Source\PSoC6\pdl\drivers/peripheral/scb/cy_scb_i2c.h **** * buffer. As a result the mater read partly updated buffer.
 260:Generated_Source\PSoC6\pdl\drivers/peripheral/scb/cy_scb_i2c.h **** *
 261:Generated_Source\PSoC6\pdl\drivers/peripheral/scb/cy_scb_i2c.h **** ********************************************************************************
 262:Generated_Source\PSoC6\pdl\drivers/peripheral/scb/cy_scb_i2c.h **** * \section group_scb_i2c_lp Low Power Support
 263:Generated_Source\PSoC6\pdl\drivers/peripheral/scb/cy_scb_i2c.h **** ********************************************************************************
 264:Generated_Source\PSoC6\pdl\drivers/peripheral/scb/cy_scb_i2c.h **** * The I2C driver provides callback functions to handle power mode transition.
 265:Generated_Source\PSoC6\pdl\drivers/peripheral/scb/cy_scb_i2c.h **** * The callback \ref Cy_SCB_I2C_DeepSleepCallback must be called
 266:Generated_Source\PSoC6\pdl\drivers/peripheral/scb/cy_scb_i2c.h **** * during execution of \ref Cy_SysPm_CpuEnterDeepSleep \ref Cy_SCB_I2C_HibernateCallback
 267:Generated_Source\PSoC6\pdl\drivers/peripheral/scb/cy_scb_i2c.h **** * must be called during execution of \ref Cy_SysPm_SystemEnterHibernate. To trigger the
 268:Generated_Source\PSoC6\pdl\drivers/peripheral/scb/cy_scb_i2c.h **** * callback execution, the callback must be registered before calling the
 269:Generated_Source\PSoC6\pdl\drivers/peripheral/scb/cy_scb_i2c.h **** * power mode transition function. Refer to \ref group_syspm driver for more
 270:Generated_Source\PSoC6\pdl\drivers/peripheral/scb/cy_scb_i2c.h **** * information about power mode transitions and callback registration.
 271:Generated_Source\PSoC6\pdl\drivers/peripheral/scb/cy_scb_i2c.h **** *
 272:Generated_Source\PSoC6\pdl\drivers/peripheral/scb/cy_scb_i2c.h **** * \note
 273:Generated_Source\PSoC6\pdl\drivers/peripheral/scb/cy_scb_i2c.h **** * Only applicable for <b>rev-08 of the CY8CKIT-062-BLE</b>.
 274:Generated_Source\PSoC6\pdl\drivers/peripheral/scb/cy_scb_i2c.h **** * For proper operation, when the I2C slave is configured to be a wakeup
 275:Generated_Source\PSoC6\pdl\drivers/peripheral/scb/cy_scb_i2c.h **** * source from Deep Sleep mode, the \ref Cy_SCB_I2C_DeepSleepCallback must be
 276:Generated_Source\PSoC6\pdl\drivers/peripheral/scb/cy_scb_i2c.h **** * copied and modified. Refer to the function description to get the details.
 277:Generated_Source\PSoC6\pdl\drivers/peripheral/scb/cy_scb_i2c.h **** *
 278:Generated_Source\PSoC6\pdl\drivers/peripheral/scb/cy_scb_i2c.h **** ********************************************************************************
 279:Generated_Source\PSoC6\pdl\drivers/peripheral/scb/cy_scb_i2c.h **** * \section group_scb_i2c_more_information More Information
 280:Generated_Source\PSoC6\pdl\drivers/peripheral/scb/cy_scb_i2c.h **** ********************************************************************************
 281:Generated_Source\PSoC6\pdl\drivers/peripheral/scb/cy_scb_i2c.h **** * For more information on the SCB peripheral, refer to the technical reference
 282:Generated_Source\PSoC6\pdl\drivers/peripheral/scb/cy_scb_i2c.h **** * manual (TRM).
 283:Generated_Source\PSoC6\pdl\drivers/peripheral/scb/cy_scb_i2c.h **** *
 284:Generated_Source\PSoC6\pdl\drivers/peripheral/scb/cy_scb_i2c.h **** ********************************************************************************
ARM GAS  C:\Users\seths\AppData\Local\Temp\ccu8EsPT.s 			page 34


 285:Generated_Source\PSoC6\pdl\drivers/peripheral/scb/cy_scb_i2c.h **** * \section group_scb_i2c_MISRA MISRA-C Compliance
 286:Generated_Source\PSoC6\pdl\drivers/peripheral/scb/cy_scb_i2c.h **** ********************************************************************************
 287:Generated_Source\PSoC6\pdl\drivers/peripheral/scb/cy_scb_i2c.h **** * <table class="doxtable">
 288:Generated_Source\PSoC6\pdl\drivers/peripheral/scb/cy_scb_i2c.h **** *   <tr>
 289:Generated_Source\PSoC6\pdl\drivers/peripheral/scb/cy_scb_i2c.h **** *     <th>MISRA Rule</th>
 290:Generated_Source\PSoC6\pdl\drivers/peripheral/scb/cy_scb_i2c.h **** *     <th>Rule Class (Required/Advisory)</th>
 291:Generated_Source\PSoC6\pdl\drivers/peripheral/scb/cy_scb_i2c.h **** *     <th>Rule Description</th>
 292:Generated_Source\PSoC6\pdl\drivers/peripheral/scb/cy_scb_i2c.h **** *     <th>Description of Deviation(s)</th>
 293:Generated_Source\PSoC6\pdl\drivers/peripheral/scb/cy_scb_i2c.h **** *   </tr>
 294:Generated_Source\PSoC6\pdl\drivers/peripheral/scb/cy_scb_i2c.h **** *   <tr>
 295:Generated_Source\PSoC6\pdl\drivers/peripheral/scb/cy_scb_i2c.h **** *     <td>11.4</td>
 296:Generated_Source\PSoC6\pdl\drivers/peripheral/scb/cy_scb_i2c.h **** *     <td>A</td>
 297:Generated_Source\PSoC6\pdl\drivers/peripheral/scb/cy_scb_i2c.h **** *     <td>A cast should not be performed between a pointer to object type and
 298:Generated_Source\PSoC6\pdl\drivers/peripheral/scb/cy_scb_i2c.h **** *         a different pointer to object type.</td>
 299:Generated_Source\PSoC6\pdl\drivers/peripheral/scb/cy_scb_i2c.h **** *     <td>The functions \ref Cy_SCB_I2C_DeepSleepCallback and
 300:Generated_Source\PSoC6\pdl\drivers/peripheral/scb/cy_scb_i2c.h **** *         \ref Cy_SCB_I2C_HibernateCallback are callback of
 301:Generated_Source\PSoC6\pdl\drivers/peripheral/scb/cy_scb_i2c.h **** *         \ref cy_en_syspm_status_t type. The cast operation safety in these
 302:Generated_Source\PSoC6\pdl\drivers/peripheral/scb/cy_scb_i2c.h **** *         functions becomes the user's responsibility because pointers are
 303:Generated_Source\PSoC6\pdl\drivers/peripheral/scb/cy_scb_i2c.h **** *         initialized when callback is registered in SysPm driver.</td>
 304:Generated_Source\PSoC6\pdl\drivers/peripheral/scb/cy_scb_i2c.h **** *   </tr>
 305:Generated_Source\PSoC6\pdl\drivers/peripheral/scb/cy_scb_i2c.h **** *   <tr>
 306:Generated_Source\PSoC6\pdl\drivers/peripheral/scb/cy_scb_i2c.h **** *     <td>14.1</td>
 307:Generated_Source\PSoC6\pdl\drivers/peripheral/scb/cy_scb_i2c.h **** *     <td>R</td>
 308:Generated_Source\PSoC6\pdl\drivers/peripheral/scb/cy_scb_i2c.h **** *     <td>There shall be no unreachable code.</td>
 309:Generated_Source\PSoC6\pdl\drivers/peripheral/scb/cy_scb_i2c.h **** *     <td>The SCB block parameters can be a constant false or true depends on
 310:Generated_Source\PSoC6\pdl\drivers/peripheral/scb/cy_scb_i2c.h **** *         the selected device and cause code to be unreachable.</td>
 311:Generated_Source\PSoC6\pdl\drivers/peripheral/scb/cy_scb_i2c.h **** *   </tr>
 312:Generated_Source\PSoC6\pdl\drivers/peripheral/scb/cy_scb_i2c.h **** *   <tr>
 313:Generated_Source\PSoC6\pdl\drivers/peripheral/scb/cy_scb_i2c.h **** *     <td>13.7</td>
 314:Generated_Source\PSoC6\pdl\drivers/peripheral/scb/cy_scb_i2c.h **** *     <td>R</td>
 315:Generated_Source\PSoC6\pdl\drivers/peripheral/scb/cy_scb_i2c.h **** *     <td>Boolean operations whose results are invariant shall not be
 316:Generated_Source\PSoC6\pdl\drivers/peripheral/scb/cy_scb_i2c.h **** *         permitted.</td>
 317:Generated_Source\PSoC6\pdl\drivers/peripheral/scb/cy_scb_i2c.h **** *     <td>
 318:Generated_Source\PSoC6\pdl\drivers/peripheral/scb/cy_scb_i2c.h **** *         * The SCB block parameters can be a constant false or true depends on
 319:Generated_Source\PSoC6\pdl\drivers/peripheral/scb/cy_scb_i2c.h **** *         the selected device and cause this violation.
 320:Generated_Source\PSoC6\pdl\drivers/peripheral/scb/cy_scb_i2c.h **** *         * The same condition check is executed before and after callback is
 321:Generated_Source\PSoC6\pdl\drivers/peripheral/scb/cy_scb_i2c.h **** *         called because after the callback returns, the condition might be not
 322:Generated_Source\PSoC6\pdl\drivers/peripheral/scb/cy_scb_i2c.h **** *         true any more.</td>
 323:Generated_Source\PSoC6\pdl\drivers/peripheral/scb/cy_scb_i2c.h **** *   </tr>
 324:Generated_Source\PSoC6\pdl\drivers/peripheral/scb/cy_scb_i2c.h **** *   <tr>
 325:Generated_Source\PSoC6\pdl\drivers/peripheral/scb/cy_scb_i2c.h **** *     <td>14.2</td>
 326:Generated_Source\PSoC6\pdl\drivers/peripheral/scb/cy_scb_i2c.h **** *     <td>R</td>
 327:Generated_Source\PSoC6\pdl\drivers/peripheral/scb/cy_scb_i2c.h **** *     <td>All non-null statements shall either: a) have at least one side-effect
 328:Generated_Source\PSoC6\pdl\drivers/peripheral/scb/cy_scb_i2c.h **** *         however executed, or b) cause control flow to change.</td>
 329:Generated_Source\PSoC6\pdl\drivers/peripheral/scb/cy_scb_i2c.h **** *     <td>The unused function parameters are cast to void. This statement
 330:Generated_Source\PSoC6\pdl\drivers/peripheral/scb/cy_scb_i2c.h **** *         has no side-effect and is used to suppress a compiler warning.</td>
 331:Generated_Source\PSoC6\pdl\drivers/peripheral/scb/cy_scb_i2c.h **** *   </tr>
 332:Generated_Source\PSoC6\pdl\drivers/peripheral/scb/cy_scb_i2c.h **** *   <tr>
 333:Generated_Source\PSoC6\pdl\drivers/peripheral/scb/cy_scb_i2c.h **** *     <td>14.7</td>
 334:Generated_Source\PSoC6\pdl\drivers/peripheral/scb/cy_scb_i2c.h **** *     <td>R</td>
 335:Generated_Source\PSoC6\pdl\drivers/peripheral/scb/cy_scb_i2c.h **** *     <td>A function shall have a single point of exit at the end of the
 336:Generated_Source\PSoC6\pdl\drivers/peripheral/scb/cy_scb_i2c.h **** *         function.</td>
 337:Generated_Source\PSoC6\pdl\drivers/peripheral/scb/cy_scb_i2c.h **** *     <td>The functions can return from several points. This is done to improve
 338:Generated_Source\PSoC6\pdl\drivers/peripheral/scb/cy_scb_i2c.h **** *         code clarity when returning error status code if input parameters
 339:Generated_Source\PSoC6\pdl\drivers/peripheral/scb/cy_scb_i2c.h **** *         validation fails.</td>
 340:Generated_Source\PSoC6\pdl\drivers/peripheral/scb/cy_scb_i2c.h **** *   </tr>
 341:Generated_Source\PSoC6\pdl\drivers/peripheral/scb/cy_scb_i2c.h **** * </table>
ARM GAS  C:\Users\seths\AppData\Local\Temp\ccu8EsPT.s 			page 35


 342:Generated_Source\PSoC6\pdl\drivers/peripheral/scb/cy_scb_i2c.h **** *
 343:Generated_Source\PSoC6\pdl\drivers/peripheral/scb/cy_scb_i2c.h **** * \section group_scb_i2c_changelog Changelog
 344:Generated_Source\PSoC6\pdl\drivers/peripheral/scb/cy_scb_i2c.h **** * <table class="doxtable">
 345:Generated_Source\PSoC6\pdl\drivers/peripheral/scb/cy_scb_i2c.h **** *   <tr><th>Version</th><th>Changes</th><th>Reason for Change</th></tr>
 346:Generated_Source\PSoC6\pdl\drivers/peripheral/scb/cy_scb_i2c.h **** *   <tr>
 347:Generated_Source\PSoC6\pdl\drivers/peripheral/scb/cy_scb_i2c.h **** *     <td rowspan="4"> 2.20</td>
 348:Generated_Source\PSoC6\pdl\drivers/peripheral/scb/cy_scb_i2c.h **** *     <td>Flattened the organization of the driver source code into the single 
 349:Generated_Source\PSoC6\pdl\drivers/peripheral/scb/cy_scb_i2c.h **** *         source directory and the single include directory.
 350:Generated_Source\PSoC6\pdl\drivers/peripheral/scb/cy_scb_i2c.h **** *     </td>
 351:Generated_Source\PSoC6\pdl\drivers/peripheral/scb/cy_scb_i2c.h **** *     <td>Driver library directory-structure simplification.</td>
 352:Generated_Source\PSoC6\pdl\drivers/peripheral/scb/cy_scb_i2c.h **** *   </tr>
 353:Generated_Source\PSoC6\pdl\drivers/peripheral/scb/cy_scb_i2c.h **** *   <tr>
 354:Generated_Source\PSoC6\pdl\drivers/peripheral/scb/cy_scb_i2c.h **** *     <td>Added the enableDigitalFilter, highPhaseDutyCycle and lowPhaseDutyCycle 
 355:Generated_Source\PSoC6\pdl\drivers/peripheral/scb/cy_scb_i2c.h **** *         fields to the \ref cy_stc_scb_i2c_config_t configuration structure.
 356:Generated_Source\PSoC6\pdl\drivers/peripheral/scb/cy_scb_i2c.h **** *     </td>
 357:Generated_Source\PSoC6\pdl\drivers/peripheral/scb/cy_scb_i2c.h **** *     <td>Added the I2C master data rate configuration using the configuration structure.
 358:Generated_Source\PSoC6\pdl\drivers/peripheral/scb/cy_scb_i2c.h **** *     </td>
 359:Generated_Source\PSoC6\pdl\drivers/peripheral/scb/cy_scb_i2c.h **** *   </tr>
 360:Generated_Source\PSoC6\pdl\drivers/peripheral/scb/cy_scb_i2c.h **** *   <tr>
 361:Generated_Source\PSoC6\pdl\drivers/peripheral/scb/cy_scb_i2c.h **** *     <td>Fixed the \ref Cy_SCB_I2C_SetDataRate function to properly configure data rates 
 362:Generated_Source\PSoC6\pdl\drivers/peripheral/scb/cy_scb_i2c.h **** *         greater than 400 kbps in Master and Master-Slave modes. \n
 363:Generated_Source\PSoC6\pdl\drivers/peripheral/scb/cy_scb_i2c.h **** *         Added verification that clk_scb is within the valid range for the desired data rate.
 364:Generated_Source\PSoC6\pdl\drivers/peripheral/scb/cy_scb_i2c.h **** *     </td>     
 365:Generated_Source\PSoC6\pdl\drivers/peripheral/scb/cy_scb_i2c.h **** *     <td>The analog filter was enabled for all data rates in Master and Master-Slave modes. 
 366:Generated_Source\PSoC6\pdl\drivers/peripheral/scb/cy_scb_i2c.h **** *         This prevents reaching the maximum supported data rate of 1000 kbps which requires a digi
 367:Generated_Source\PSoC6\pdl\drivers/peripheral/scb/cy_scb_i2c.h **** *     </td>
 368:Generated_Source\PSoC6\pdl\drivers/peripheral/scb/cy_scb_i2c.h **** *   </tr>
 369:Generated_Source\PSoC6\pdl\drivers/peripheral/scb/cy_scb_i2c.h **** *   <tr>
 370:Generated_Source\PSoC6\pdl\drivers/peripheral/scb/cy_scb_i2c.h **** *     <td>Added register access layer. Use register access macros instead
 371:Generated_Source\PSoC6\pdl\drivers/peripheral/scb/cy_scb_i2c.h **** *         of direct register access using dereferenced pointers.</td>
 372:Generated_Source\PSoC6\pdl\drivers/peripheral/scb/cy_scb_i2c.h **** *     <td>Makes register access device-independent, so that the PDL does 
 373:Generated_Source\PSoC6\pdl\drivers/peripheral/scb/cy_scb_i2c.h **** *         not need to be recompiled for each supported part number.</td>
 374:Generated_Source\PSoC6\pdl\drivers/peripheral/scb/cy_scb_i2c.h **** *   </tr>
 375:Generated_Source\PSoC6\pdl\drivers/peripheral/scb/cy_scb_i2c.h **** *   <tr>
 376:Generated_Source\PSoC6\pdl\drivers/peripheral/scb/cy_scb_i2c.h **** *     <td rowspan="4"> 2.10</td>
 377:Generated_Source\PSoC6\pdl\drivers/peripheral/scb/cy_scb_i2c.h **** *     <td>Fixed the ReStart condition generation sequence for a write
 378:Generated_Source\PSoC6\pdl\drivers/peripheral/scb/cy_scb_i2c.h **** *         transaction in the \ref Cy_SCB_I2C_MasterWrite function.</td>
 379:Generated_Source\PSoC6\pdl\drivers/peripheral/scb/cy_scb_i2c.h **** *     <td>The driver can notify about a zero length write transaction completion 
 380:Generated_Source\PSoC6\pdl\drivers/peripheral/scb/cy_scb_i2c.h **** *         before the address byte is sent if the \ref Cy_SCB_I2C_MasterWrite 
 381:Generated_Source\PSoC6\pdl\drivers/peripheral/scb/cy_scb_i2c.h **** *         function execution was interrupted between setting the restart 
 382:Generated_Source\PSoC6\pdl\drivers/peripheral/scb/cy_scb_i2c.h **** *         generation command and writing the address byte into the TX FIFO.</td>
 383:Generated_Source\PSoC6\pdl\drivers/peripheral/scb/cy_scb_i2c.h **** *   </tr>
 384:Generated_Source\PSoC6\pdl\drivers/peripheral/scb/cy_scb_i2c.h **** *   <tr>
 385:Generated_Source\PSoC6\pdl\drivers/peripheral/scb/cy_scb_i2c.h **** *     <td>Added the slave- and master-specific interrupt functions:
 386:Generated_Source\PSoC6\pdl\drivers/peripheral/scb/cy_scb_i2c.h **** *         \ref Cy_SCB_I2C_SlaveInterrupt and \ref Cy_SCB_I2C_MasterInterrupt.
 387:Generated_Source\PSoC6\pdl\drivers/peripheral/scb/cy_scb_i2c.h **** *     </td>
 388:Generated_Source\PSoC6\pdl\drivers/peripheral/scb/cy_scb_i2c.h **** *     <td>Improved the interrupt configuration options for the I2C slave and
 389:Generated_Source\PSoC6\pdl\drivers/peripheral/scb/cy_scb_i2c.h **** *         master mode configurations.</td>
 390:Generated_Source\PSoC6\pdl\drivers/peripheral/scb/cy_scb_i2c.h **** *   </tr>
 391:Generated_Source\PSoC6\pdl\drivers/peripheral/scb/cy_scb_i2c.h **** *   <tr>
 392:Generated_Source\PSoC6\pdl\drivers/peripheral/scb/cy_scb_i2c.h **** *     <td>Updated the Start condition generation sequence in the \ref 
 393:Generated_Source\PSoC6\pdl\drivers/peripheral/scb/cy_scb_i2c.h **** *         Cy_SCB_I2C_MasterWrite and \ref Cy_SCB_I2C_MasterRead.</td>
 394:Generated_Source\PSoC6\pdl\drivers/peripheral/scb/cy_scb_i2c.h **** *     <td></td>
 395:Generated_Source\PSoC6\pdl\drivers/peripheral/scb/cy_scb_i2c.h **** *   </tr>
 396:Generated_Source\PSoC6\pdl\drivers/peripheral/scb/cy_scb_i2c.h **** *   <tr>
 397:Generated_Source\PSoC6\pdl\drivers/peripheral/scb/cy_scb_i2c.h **** *     <td>Updated the ReStart condition generation sequence for a write
 398:Generated_Source\PSoC6\pdl\drivers/peripheral/scb/cy_scb_i2c.h **** *         transaction in the \ref Cy_SCB_I2C_MasterSendReStart function.</td>
ARM GAS  C:\Users\seths\AppData\Local\Temp\ccu8EsPT.s 			page 36


 399:Generated_Source\PSoC6\pdl\drivers/peripheral/scb/cy_scb_i2c.h **** *     <td></td>
 400:Generated_Source\PSoC6\pdl\drivers/peripheral/scb/cy_scb_i2c.h **** *   </tr>
 401:Generated_Source\PSoC6\pdl\drivers/peripheral/scb/cy_scb_i2c.h **** *   <tr>
 402:Generated_Source\PSoC6\pdl\drivers/peripheral/scb/cy_scb_i2c.h **** *     <td rowspan="5"> 2.0</td>
 403:Generated_Source\PSoC6\pdl\drivers/peripheral/scb/cy_scb_i2c.h **** *     <td>Fixed the \ref Cy_SCB_I2C_MasterSendReStart function to properly 
 404:Generated_Source\PSoC6\pdl\drivers/peripheral/scb/cy_scb_i2c.h **** *         generate the ReStart condition when the previous transaction was 
 405:Generated_Source\PSoC6\pdl\drivers/peripheral/scb/cy_scb_i2c.h **** *         a write.</td>
 406:Generated_Source\PSoC6\pdl\drivers/peripheral/scb/cy_scb_i2c.h **** *     <td>The master interpreted the address byte written into the TX FIFO as a
 407:Generated_Source\PSoC6\pdl\drivers/peripheral/scb/cy_scb_i2c.h **** *         data byte and continued a write transaction. The ReStart condition was
 408:Generated_Source\PSoC6\pdl\drivers/peripheral/scb/cy_scb_i2c.h **** *         generated after the master completed transferring the data byte.
 409:Generated_Source\PSoC6\pdl\drivers/peripheral/scb/cy_scb_i2c.h **** *         The SCL line was stretched by the master waiting for the address byte
 410:Generated_Source\PSoC6\pdl\drivers/peripheral/scb/cy_scb_i2c.h **** *         to be written into the TX FIFO after the ReStart condition generation.
 411:Generated_Source\PSoC6\pdl\drivers/peripheral/scb/cy_scb_i2c.h **** *         The following timeout detection released the bus from the master
 412:Generated_Source\PSoC6\pdl\drivers/peripheral/scb/cy_scb_i2c.h **** *         control.</td>
 413:Generated_Source\PSoC6\pdl\drivers/peripheral/scb/cy_scb_i2c.h **** *   </tr>
 414:Generated_Source\PSoC6\pdl\drivers/peripheral/scb/cy_scb_i2c.h **** *   <tr>
 415:Generated_Source\PSoC6\pdl\drivers/peripheral/scb/cy_scb_i2c.h **** *     <td>Fixed the slave operation after the address byte was NACKed by the
 416:Generated_Source\PSoC6\pdl\drivers/peripheral/scb/cy_scb_i2c.h **** *         firmware.</td>
 417:Generated_Source\PSoC6\pdl\drivers/peripheral/scb/cy_scb_i2c.h **** *     <td>The observed slave operation failure depends on whether Level 2 assert
 418:Generated_Source\PSoC6\pdl\drivers/peripheral/scb/cy_scb_i2c.h **** *         is enabled or not. Enabled: the device stuck in the fault handler due
 419:Generated_Source\PSoC6\pdl\drivers/peripheral/scb/cy_scb_i2c.h **** *         to the assert assignment in the \ref Cy_SCB_I2C_Interrupt. Disabled: 
 420:Generated_Source\PSoC6\pdl\drivers/peripheral/scb/cy_scb_i2c.h **** *         the slave sets the transaction completion status and notifies on the 
 421:Generated_Source\PSoC6\pdl\drivers/peripheral/scb/cy_scb_i2c.h **** *         transaction completion event after the address was NACKed. The failure
 422:Generated_Source\PSoC6\pdl\drivers/peripheral/scb/cy_scb_i2c.h **** *         is observed only when the slave is configured to accept an address in 
 423:Generated_Source\PSoC6\pdl\drivers/peripheral/scb/cy_scb_i2c.h **** *         the RX FIFO.</td>
 424:Generated_Source\PSoC6\pdl\drivers/peripheral/scb/cy_scb_i2c.h **** *   </tr>
 425:Generated_Source\PSoC6\pdl\drivers/peripheral/scb/cy_scb_i2c.h **** *   <tr>
 426:Generated_Source\PSoC6\pdl\drivers/peripheral/scb/cy_scb_i2c.h **** *     <td>Added parameters validation for public API.</td>
 427:Generated_Source\PSoC6\pdl\drivers/peripheral/scb/cy_scb_i2c.h **** *     <td></td>
 428:Generated_Source\PSoC6\pdl\drivers/peripheral/scb/cy_scb_i2c.h **** *   </tr>
 429:Generated_Source\PSoC6\pdl\drivers/peripheral/scb/cy_scb_i2c.h **** *   <tr>
 430:Generated_Source\PSoC6\pdl\drivers/peripheral/scb/cy_scb_i2c.h **** *     <td>Replaced variables which have limited range of values with enumerated
 431:Generated_Source\PSoC6\pdl\drivers/peripheral/scb/cy_scb_i2c.h **** *         types.</td>
 432:Generated_Source\PSoC6\pdl\drivers/peripheral/scb/cy_scb_i2c.h **** *     <td></td>
 433:Generated_Source\PSoC6\pdl\drivers/peripheral/scb/cy_scb_i2c.h **** *   </tr>
 434:Generated_Source\PSoC6\pdl\drivers/peripheral/scb/cy_scb_i2c.h **** *   <tr>
 435:Generated_Source\PSoC6\pdl\drivers/peripheral/scb/cy_scb_i2c.h **** *     <td>Added missing "cy_cb_" to the callback function type names.</td>
 436:Generated_Source\PSoC6\pdl\drivers/peripheral/scb/cy_scb_i2c.h **** *     <td></td>
 437:Generated_Source\PSoC6\pdl\drivers/peripheral/scb/cy_scb_i2c.h **** *   </tr>
 438:Generated_Source\PSoC6\pdl\drivers/peripheral/scb/cy_scb_i2c.h **** *   <tr>
 439:Generated_Source\PSoC6\pdl\drivers/peripheral/scb/cy_scb_i2c.h **** *     <td>1.0</td>
 440:Generated_Source\PSoC6\pdl\drivers/peripheral/scb/cy_scb_i2c.h **** *     <td>Initial version.</td>
 441:Generated_Source\PSoC6\pdl\drivers/peripheral/scb/cy_scb_i2c.h **** *     <td></td>
 442:Generated_Source\PSoC6\pdl\drivers/peripheral/scb/cy_scb_i2c.h **** *   </tr>
 443:Generated_Source\PSoC6\pdl\drivers/peripheral/scb/cy_scb_i2c.h **** * </table>
 444:Generated_Source\PSoC6\pdl\drivers/peripheral/scb/cy_scb_i2c.h **** *
 445:Generated_Source\PSoC6\pdl\drivers/peripheral/scb/cy_scb_i2c.h **** * \defgroup group_scb_i2c_macros Macros
 446:Generated_Source\PSoC6\pdl\drivers/peripheral/scb/cy_scb_i2c.h **** * \defgroup group_scb_i2c_functions Functions
 447:Generated_Source\PSoC6\pdl\drivers/peripheral/scb/cy_scb_i2c.h **** * \{
 448:Generated_Source\PSoC6\pdl\drivers/peripheral/scb/cy_scb_i2c.h **** * \defgroup group_scb_i2c_general_functions General
 449:Generated_Source\PSoC6\pdl\drivers/peripheral/scb/cy_scb_i2c.h **** * \defgroup group_scb_i2c_slave_functions Slave
 450:Generated_Source\PSoC6\pdl\drivers/peripheral/scb/cy_scb_i2c.h **** * \defgroup group_scb_i2c_master_high_level_functions Master High-Level
 451:Generated_Source\PSoC6\pdl\drivers/peripheral/scb/cy_scb_i2c.h **** * \defgroup group_scb_i2c_master_low_level_functions Master Low-Level
 452:Generated_Source\PSoC6\pdl\drivers/peripheral/scb/cy_scb_i2c.h **** * \defgroup group_scb_i2c_interrupt_functions Interrupt
 453:Generated_Source\PSoC6\pdl\drivers/peripheral/scb/cy_scb_i2c.h **** * \defgroup group_scb_i2c_low_power_functions Low Power Callbacks
 454:Generated_Source\PSoC6\pdl\drivers/peripheral/scb/cy_scb_i2c.h **** * \}
 455:Generated_Source\PSoC6\pdl\drivers/peripheral/scb/cy_scb_i2c.h **** * \defgroup group_scb_i2c_data_structures Data Structures
ARM GAS  C:\Users\seths\AppData\Local\Temp\ccu8EsPT.s 			page 37


 456:Generated_Source\PSoC6\pdl\drivers/peripheral/scb/cy_scb_i2c.h **** * \defgroup group_scb_i2c_enums Enumerated Types
 457:Generated_Source\PSoC6\pdl\drivers/peripheral/scb/cy_scb_i2c.h **** */
 458:Generated_Source\PSoC6\pdl\drivers/peripheral/scb/cy_scb_i2c.h **** 
 459:Generated_Source\PSoC6\pdl\drivers/peripheral/scb/cy_scb_i2c.h **** #if !defined(CY_SCB_I2C_H)
 460:Generated_Source\PSoC6\pdl\drivers/peripheral/scb/cy_scb_i2c.h **** #define CY_SCB_I2C_H
 461:Generated_Source\PSoC6\pdl\drivers/peripheral/scb/cy_scb_i2c.h **** 
 462:Generated_Source\PSoC6\pdl\drivers/peripheral/scb/cy_scb_i2c.h **** #include "cy_scb_common.h"
 463:Generated_Source\PSoC6\pdl\drivers/peripheral/scb/cy_scb_i2c.h **** 
 464:Generated_Source\PSoC6\pdl\drivers/peripheral/scb/cy_scb_i2c.h **** #if defined(__cplusplus)
 465:Generated_Source\PSoC6\pdl\drivers/peripheral/scb/cy_scb_i2c.h **** extern "C" {
 466:Generated_Source\PSoC6\pdl\drivers/peripheral/scb/cy_scb_i2c.h **** #endif
 467:Generated_Source\PSoC6\pdl\drivers/peripheral/scb/cy_scb_i2c.h **** 
 468:Generated_Source\PSoC6\pdl\drivers/peripheral/scb/cy_scb_i2c.h **** /*******************************************************************************
 469:Generated_Source\PSoC6\pdl\drivers/peripheral/scb/cy_scb_i2c.h **** *                            Enumerated Types
 470:Generated_Source\PSoC6\pdl\drivers/peripheral/scb/cy_scb_i2c.h **** *******************************************************************************/
 471:Generated_Source\PSoC6\pdl\drivers/peripheral/scb/cy_scb_i2c.h **** 
 472:Generated_Source\PSoC6\pdl\drivers/peripheral/scb/cy_scb_i2c.h **** /**
 473:Generated_Source\PSoC6\pdl\drivers/peripheral/scb/cy_scb_i2c.h **** * \addtogroup group_scb_i2c_enums
 474:Generated_Source\PSoC6\pdl\drivers/peripheral/scb/cy_scb_i2c.h **** * \{
 475:Generated_Source\PSoC6\pdl\drivers/peripheral/scb/cy_scb_i2c.h **** */
 476:Generated_Source\PSoC6\pdl\drivers/peripheral/scb/cy_scb_i2c.h **** 
 477:Generated_Source\PSoC6\pdl\drivers/peripheral/scb/cy_scb_i2c.h **** /** I2C status codes */
 478:Generated_Source\PSoC6\pdl\drivers/peripheral/scb/cy_scb_i2c.h **** typedef enum
 479:Generated_Source\PSoC6\pdl\drivers/peripheral/scb/cy_scb_i2c.h **** {
 480:Generated_Source\PSoC6\pdl\drivers/peripheral/scb/cy_scb_i2c.h ****     /** Operation completed successfully */
 481:Generated_Source\PSoC6\pdl\drivers/peripheral/scb/cy_scb_i2c.h ****     CY_SCB_I2C_SUCCESS = 0U,
 482:Generated_Source\PSoC6\pdl\drivers/peripheral/scb/cy_scb_i2c.h **** 
 483:Generated_Source\PSoC6\pdl\drivers/peripheral/scb/cy_scb_i2c.h ****     /** One or more of input parameters are invalid */
 484:Generated_Source\PSoC6\pdl\drivers/peripheral/scb/cy_scb_i2c.h ****     CY_SCB_I2C_BAD_PARAM = (CY_SCB_ID | CY_PDL_STATUS_ERROR | CY_SCB_I2C_ID | 1U),
 485:Generated_Source\PSoC6\pdl\drivers/peripheral/scb/cy_scb_i2c.h **** 
 486:Generated_Source\PSoC6\pdl\drivers/peripheral/scb/cy_scb_i2c.h ****     /**
 487:Generated_Source\PSoC6\pdl\drivers/peripheral/scb/cy_scb_i2c.h ****     * The master is not ready to start a new transaction.
 488:Generated_Source\PSoC6\pdl\drivers/peripheral/scb/cy_scb_i2c.h ****     * Either the master is still processing a previous transaction or in the
 489:Generated_Source\PSoC6\pdl\drivers/peripheral/scb/cy_scb_i2c.h ****     * master-slave mode, the slave operation is in progress.
 490:Generated_Source\PSoC6\pdl\drivers/peripheral/scb/cy_scb_i2c.h ****     */
 491:Generated_Source\PSoC6\pdl\drivers/peripheral/scb/cy_scb_i2c.h ****     CY_SCB_I2C_MASTER_NOT_READY = (CY_SCB_ID | CY_PDL_STATUS_ERROR | CY_SCB_I2C_ID | 2U),
 492:Generated_Source\PSoC6\pdl\drivers/peripheral/scb/cy_scb_i2c.h **** 
 493:Generated_Source\PSoC6\pdl\drivers/peripheral/scb/cy_scb_i2c.h ****     /**
 494:Generated_Source\PSoC6\pdl\drivers/peripheral/scb/cy_scb_i2c.h ****     * The master operation timed out before completing. Applicable only for
 495:Generated_Source\PSoC6\pdl\drivers/peripheral/scb/cy_scb_i2c.h ****     * the \ref group_scb_i2c_master_low_level_functions functions.
 496:Generated_Source\PSoC6\pdl\drivers/peripheral/scb/cy_scb_i2c.h ****     */
 497:Generated_Source\PSoC6\pdl\drivers/peripheral/scb/cy_scb_i2c.h ****     CY_SCB_I2C_MASTER_MANUAL_TIMEOUT = (CY_SCB_ID | CY_PDL_STATUS_ERROR | CY_SCB_I2C_ID | 3U),
 498:Generated_Source\PSoC6\pdl\drivers/peripheral/scb/cy_scb_i2c.h **** 
 499:Generated_Source\PSoC6\pdl\drivers/peripheral/scb/cy_scb_i2c.h ****     /** The slave NACKed the address. Applicable only for the
 500:Generated_Source\PSoC6\pdl\drivers/peripheral/scb/cy_scb_i2c.h ****     * \ref group_scb_i2c_master_low_level_functions functions.
 501:Generated_Source\PSoC6\pdl\drivers/peripheral/scb/cy_scb_i2c.h ****     */
 502:Generated_Source\PSoC6\pdl\drivers/peripheral/scb/cy_scb_i2c.h ****     CY_SCB_I2C_MASTER_MANUAL_ADDR_NAK = (CY_SCB_ID | CY_PDL_STATUS_ERROR | CY_SCB_I2C_ID | 4U),
 503:Generated_Source\PSoC6\pdl\drivers/peripheral/scb/cy_scb_i2c.h **** 
 504:Generated_Source\PSoC6\pdl\drivers/peripheral/scb/cy_scb_i2c.h ****     /** The slave NACKed the data byte.  Applicable only for the
 505:Generated_Source\PSoC6\pdl\drivers/peripheral/scb/cy_scb_i2c.h ****     * \ref group_scb_i2c_master_low_level_functions.
 506:Generated_Source\PSoC6\pdl\drivers/peripheral/scb/cy_scb_i2c.h ****     */
 507:Generated_Source\PSoC6\pdl\drivers/peripheral/scb/cy_scb_i2c.h ****     CY_SCB_I2C_MASTER_MANUAL_NAK = (CY_SCB_ID | CY_PDL_STATUS_ERROR | CY_SCB_I2C_ID | 5U),
 508:Generated_Source\PSoC6\pdl\drivers/peripheral/scb/cy_scb_i2c.h **** 
 509:Generated_Source\PSoC6\pdl\drivers/peripheral/scb/cy_scb_i2c.h ****     /**
 510:Generated_Source\PSoC6\pdl\drivers/peripheral/scb/cy_scb_i2c.h ****     * The master lost arbitration, the transaction was aborted. Applicable only
 511:Generated_Source\PSoC6\pdl\drivers/peripheral/scb/cy_scb_i2c.h ****     * for the \ref group_scb_i2c_master_low_level_functions functions.
 512:Generated_Source\PSoC6\pdl\drivers/peripheral/scb/cy_scb_i2c.h ****     */
ARM GAS  C:\Users\seths\AppData\Local\Temp\ccu8EsPT.s 			page 38


 513:Generated_Source\PSoC6\pdl\drivers/peripheral/scb/cy_scb_i2c.h ****     CY_SCB_I2C_MASTER_MANUAL_ARB_LOST = (CY_SCB_ID | CY_PDL_STATUS_ERROR | CY_SCB_I2C_ID | 6U),
 514:Generated_Source\PSoC6\pdl\drivers/peripheral/scb/cy_scb_i2c.h **** 
 515:Generated_Source\PSoC6\pdl\drivers/peripheral/scb/cy_scb_i2c.h ****     /**
 516:Generated_Source\PSoC6\pdl\drivers/peripheral/scb/cy_scb_i2c.h ****     * The master detected an erroneous start or stop, the transaction was
 517:Generated_Source\PSoC6\pdl\drivers/peripheral/scb/cy_scb_i2c.h ****     * aborted. Applicable only for the
 518:Generated_Source\PSoC6\pdl\drivers/peripheral/scb/cy_scb_i2c.h ****     * \ref group_scb_i2c_master_low_level_functions functions.
 519:Generated_Source\PSoC6\pdl\drivers/peripheral/scb/cy_scb_i2c.h ****     */
 520:Generated_Source\PSoC6\pdl\drivers/peripheral/scb/cy_scb_i2c.h ****     CY_SCB_I2C_MASTER_MANUAL_BUS_ERR = (CY_SCB_ID | CY_PDL_STATUS_ERROR | CY_SCB_I2C_ID | 7U),
 521:Generated_Source\PSoC6\pdl\drivers/peripheral/scb/cy_scb_i2c.h **** 
 522:Generated_Source\PSoC6\pdl\drivers/peripheral/scb/cy_scb_i2c.h ****     /**
 523:Generated_Source\PSoC6\pdl\drivers/peripheral/scb/cy_scb_i2c.h ****     * The master transaction was aborted and the slave transaction is on-going
 524:Generated_Source\PSoC6\pdl\drivers/peripheral/scb/cy_scb_i2c.h ****     * because the slave was addressed before the master generated a start.
 525:Generated_Source\PSoC6\pdl\drivers/peripheral/scb/cy_scb_i2c.h ****     * Applicable only for the \ref group_scb_i2c_master_low_level_functions
 526:Generated_Source\PSoC6\pdl\drivers/peripheral/scb/cy_scb_i2c.h ****     * functions.
 527:Generated_Source\PSoC6\pdl\drivers/peripheral/scb/cy_scb_i2c.h ****     */
 528:Generated_Source\PSoC6\pdl\drivers/peripheral/scb/cy_scb_i2c.h ****     CY_SCB_I2C_MASTER_MANUAL_ABORT_START = (CY_SCB_ID | CY_PDL_STATUS_ERROR | CY_SCB_I2C_ID | 8U)
 529:Generated_Source\PSoC6\pdl\drivers/peripheral/scb/cy_scb_i2c.h **** } cy_en_scb_i2c_status_t;
 530:Generated_Source\PSoC6\pdl\drivers/peripheral/scb/cy_scb_i2c.h **** 
 531:Generated_Source\PSoC6\pdl\drivers/peripheral/scb/cy_scb_i2c.h **** /** I2C Operation Modes */
 532:Generated_Source\PSoC6\pdl\drivers/peripheral/scb/cy_scb_i2c.h **** typedef enum
 533:Generated_Source\PSoC6\pdl\drivers/peripheral/scb/cy_scb_i2c.h **** {
 534:Generated_Source\PSoC6\pdl\drivers/peripheral/scb/cy_scb_i2c.h ****     CY_SCB_I2C_SLAVE        = 1U,    /**< Configures SCB for I2C Slave operation */
 535:Generated_Source\PSoC6\pdl\drivers/peripheral/scb/cy_scb_i2c.h ****     CY_SCB_I2C_MASTER       = 2U,    /**< Configures SCB for I2C Master operation */
 536:Generated_Source\PSoC6\pdl\drivers/peripheral/scb/cy_scb_i2c.h ****     CY_SCB_I2C_MASTER_SLAVE = 3U,    /**< Configures SCB for I2C Master-Slave operation */
 537:Generated_Source\PSoC6\pdl\drivers/peripheral/scb/cy_scb_i2c.h **** } cy_en_scb_i2c_mode_t;
 538:Generated_Source\PSoC6\pdl\drivers/peripheral/scb/cy_scb_i2c.h **** 
 539:Generated_Source\PSoC6\pdl\drivers/peripheral/scb/cy_scb_i2c.h **** /** I2C Transaction Direction */
 540:Generated_Source\PSoC6\pdl\drivers/peripheral/scb/cy_scb_i2c.h **** typedef enum
 541:Generated_Source\PSoC6\pdl\drivers/peripheral/scb/cy_scb_i2c.h **** {
 542:Generated_Source\PSoC6\pdl\drivers/peripheral/scb/cy_scb_i2c.h ****     CY_SCB_I2C_WRITE_XFER = 0U,  /**< Current transaction is Write */
 543:Generated_Source\PSoC6\pdl\drivers/peripheral/scb/cy_scb_i2c.h ****     CY_SCB_I2C_READ_XFER  = 1U,  /**< Current transaction is Read */
 544:Generated_Source\PSoC6\pdl\drivers/peripheral/scb/cy_scb_i2c.h **** } cy_en_scb_i2c_direction_t;
 545:Generated_Source\PSoC6\pdl\drivers/peripheral/scb/cy_scb_i2c.h **** 
 546:Generated_Source\PSoC6\pdl\drivers/peripheral/scb/cy_scb_i2c.h **** /** I2C Command ACK / NAK */
 547:Generated_Source\PSoC6\pdl\drivers/peripheral/scb/cy_scb_i2c.h **** typedef enum
 548:Generated_Source\PSoC6\pdl\drivers/peripheral/scb/cy_scb_i2c.h **** {
 549:Generated_Source\PSoC6\pdl\drivers/peripheral/scb/cy_scb_i2c.h ****     CY_SCB_I2C_ACK,     /**< Send ACK to current byte */
 550:Generated_Source\PSoC6\pdl\drivers/peripheral/scb/cy_scb_i2c.h ****     CY_SCB_I2C_NAK,     /**< Send NAK to current byte */
 551:Generated_Source\PSoC6\pdl\drivers/peripheral/scb/cy_scb_i2c.h **** } cy_en_scb_i2c_command_t;
 552:Generated_Source\PSoC6\pdl\drivers/peripheral/scb/cy_scb_i2c.h **** /** \} group_scb_i2c_enums */
 553:Generated_Source\PSoC6\pdl\drivers/peripheral/scb/cy_scb_i2c.h **** 
 554:Generated_Source\PSoC6\pdl\drivers/peripheral/scb/cy_scb_i2c.h **** 
 555:Generated_Source\PSoC6\pdl\drivers/peripheral/scb/cy_scb_i2c.h **** /*******************************************************************************
 556:Generated_Source\PSoC6\pdl\drivers/peripheral/scb/cy_scb_i2c.h **** *                              Type Definitions
 557:Generated_Source\PSoC6\pdl\drivers/peripheral/scb/cy_scb_i2c.h **** *******************************************************************************/
 558:Generated_Source\PSoC6\pdl\drivers/peripheral/scb/cy_scb_i2c.h **** 
 559:Generated_Source\PSoC6\pdl\drivers/peripheral/scb/cy_scb_i2c.h **** /**
 560:Generated_Source\PSoC6\pdl\drivers/peripheral/scb/cy_scb_i2c.h **** * \addtogroup group_scb_i2c_data_structures
 561:Generated_Source\PSoC6\pdl\drivers/peripheral/scb/cy_scb_i2c.h **** * \{
 562:Generated_Source\PSoC6\pdl\drivers/peripheral/scb/cy_scb_i2c.h **** */
 563:Generated_Source\PSoC6\pdl\drivers/peripheral/scb/cy_scb_i2c.h **** 
 564:Generated_Source\PSoC6\pdl\drivers/peripheral/scb/cy_scb_i2c.h **** /**
 565:Generated_Source\PSoC6\pdl\drivers/peripheral/scb/cy_scb_i2c.h **** * Provides the typedef for the callback function called in the
 566:Generated_Source\PSoC6\pdl\drivers/peripheral/scb/cy_scb_i2c.h **** * \ref Cy_SCB_I2C_Interrupt to notify the user about occurrences of
 567:Generated_Source\PSoC6\pdl\drivers/peripheral/scb/cy_scb_i2c.h **** * \ref group_scb_i2c_macros_callback_events.
 568:Generated_Source\PSoC6\pdl\drivers/peripheral/scb/cy_scb_i2c.h **** */
 569:Generated_Source\PSoC6\pdl\drivers/peripheral/scb/cy_scb_i2c.h **** typedef void (* cy_cb_scb_i2c_handle_events_t)(uint32_t event);
ARM GAS  C:\Users\seths\AppData\Local\Temp\ccu8EsPT.s 			page 39


 570:Generated_Source\PSoC6\pdl\drivers/peripheral/scb/cy_scb_i2c.h **** 
 571:Generated_Source\PSoC6\pdl\drivers/peripheral/scb/cy_scb_i2c.h **** /**
 572:Generated_Source\PSoC6\pdl\drivers/peripheral/scb/cy_scb_i2c.h **** * Provides the typedef for the callback function called in the
 573:Generated_Source\PSoC6\pdl\drivers/peripheral/scb/cy_scb_i2c.h **** * \ref Cy_SCB_I2C_Interrupt to notify the user about occurrences of
 574:Generated_Source\PSoC6\pdl\drivers/peripheral/scb/cy_scb_i2c.h **** * \ref group_scb_i2c_macros_addr_callback_events.
 575:Generated_Source\PSoC6\pdl\drivers/peripheral/scb/cy_scb_i2c.h **** * This callback must return a decision to ACK (continue transaction) or
 576:Generated_Source\PSoC6\pdl\drivers/peripheral/scb/cy_scb_i2c.h **** * NAK (end transaction) the received address.
 577:Generated_Source\PSoC6\pdl\drivers/peripheral/scb/cy_scb_i2c.h **** * Note if the slave is configured to accept an address in RX FIFO, it must read
 578:Generated_Source\PSoC6\pdl\drivers/peripheral/scb/cy_scb_i2c.h **** * from it using the \ref Cy_SCB_ReadRxFifo function.
 579:Generated_Source\PSoC6\pdl\drivers/peripheral/scb/cy_scb_i2c.h **** */
 580:Generated_Source\PSoC6\pdl\drivers/peripheral/scb/cy_scb_i2c.h **** typedef cy_en_scb_i2c_command_t (* cy_cb_scb_i2c_handle_addr_t)(uint32_t event);
 581:Generated_Source\PSoC6\pdl\drivers/peripheral/scb/cy_scb_i2c.h **** 
 582:Generated_Source\PSoC6\pdl\drivers/peripheral/scb/cy_scb_i2c.h **** /** I2C configuration structure */
 583:Generated_Source\PSoC6\pdl\drivers/peripheral/scb/cy_scb_i2c.h **** typedef struct cy_stc_scb_i2c_config
 584:Generated_Source\PSoC6\pdl\drivers/peripheral/scb/cy_scb_i2c.h **** {
 585:Generated_Source\PSoC6\pdl\drivers/peripheral/scb/cy_scb_i2c.h ****     /** Specifies the mode of operation */
 586:Generated_Source\PSoC6\pdl\drivers/peripheral/scb/cy_scb_i2c.h ****     cy_en_scb_i2c_mode_t i2cMode;
 587:Generated_Source\PSoC6\pdl\drivers/peripheral/scb/cy_scb_i2c.h **** 
 588:Generated_Source\PSoC6\pdl\drivers/peripheral/scb/cy_scb_i2c.h ****     /**
 589:Generated_Source\PSoC6\pdl\drivers/peripheral/scb/cy_scb_i2c.h ****     * The SCB provides an RX FIFO in hardware (consult the selected device
 590:Generated_Source\PSoC6\pdl\drivers/peripheral/scb/cy_scb_i2c.h ****     * datasheet to get the actual FIFO size). The useRxFifo field defines
 591:Generated_Source\PSoC6\pdl\drivers/peripheral/scb/cy_scb_i2c.h ****     * how the driver firmware reads data from the RX FIFO:
 592:Generated_Source\PSoC6\pdl\drivers/peripheral/scb/cy_scb_i2c.h ****     * * If this option is enabled, the hardware is configured to automatically
 593:Generated_Source\PSoC6\pdl\drivers/peripheral/scb/cy_scb_i2c.h ****     *   ACK incoming data, and interrupt is enabled to take data out of the RX
 594:Generated_Source\PSoC6\pdl\drivers/peripheral/scb/cy_scb_i2c.h ****     *   FIFO when it has some number of bytes (typically, when it is half full).
 595:Generated_Source\PSoC6\pdl\drivers/peripheral/scb/cy_scb_i2c.h ****     * * If this option is disabled, the interrupt is enabled to take data out of
 596:Generated_Source\PSoC6\pdl\drivers/peripheral/scb/cy_scb_i2c.h ****     *   the RX FIFO when a byte is available. Also, hardware does not
 597:Generated_Source\PSoC6\pdl\drivers/peripheral/scb/cy_scb_i2c.h ****     *   automatically ACK the data. Firmware must tell the hardware to ACK
 598:Generated_Source\PSoC6\pdl\drivers/peripheral/scb/cy_scb_i2c.h ****     *   the byte (so each byte requires interrupt processing).
 599:Generated_Source\PSoC6\pdl\drivers/peripheral/scb/cy_scb_i2c.h ****     * \n <b>Typically, this option should be enabled</b> to configure hardware to
 600:Generated_Source\PSoC6\pdl\drivers/peripheral/scb/cy_scb_i2c.h ****     * automatically ACK incoming data. Otherwise hardware might not get the command
 601:Generated_Source\PSoC6\pdl\drivers/peripheral/scb/cy_scb_i2c.h ****     * to ACK or NACK a byte fast enough, and clock stretching is applied
 602:Generated_Source\PSoC6\pdl\drivers/peripheral/scb/cy_scb_i2c.h ****     * (the transaction is delayed) until the command is set. When this option is
 603:Generated_Source\PSoC6\pdl\drivers/peripheral/scb/cy_scb_i2c.h ****     * enabled, the number of interrupts required to process the transaction
 604:Generated_Source\PSoC6\pdl\drivers/peripheral/scb/cy_scb_i2c.h ****     * is significantly reduced because several bytes are handled at once.
 605:Generated_Source\PSoC6\pdl\drivers/peripheral/scb/cy_scb_i2c.h ****     * \n <b>However, there is a side effect:</b>
 606:Generated_Source\PSoC6\pdl\drivers/peripheral/scb/cy_scb_i2c.h ****     * * For master mode, the drawback is that the master may receive more
 607:Generated_Source\PSoC6\pdl\drivers/peripheral/scb/cy_scb_i2c.h ****     *   data than desired due to the interrupt latency. An interrupt fires
 608:Generated_Source\PSoC6\pdl\drivers/peripheral/scb/cy_scb_i2c.h ****     *   when the second-to-last byte has been received. This interrupt tells
 609:Generated_Source\PSoC6\pdl\drivers/peripheral/scb/cy_scb_i2c.h ****     *   the hardware to stop receiving data. If the latency of this interrupt
 610:Generated_Source\PSoC6\pdl\drivers/peripheral/scb/cy_scb_i2c.h ****     *   is longer than one transaction of the byte on the I2C bus, then the
 611:Generated_Source\PSoC6\pdl\drivers/peripheral/scb/cy_scb_i2c.h ****     *   hardware automatically ACKs the following bytes until the interrupt
 612:Generated_Source\PSoC6\pdl\drivers/peripheral/scb/cy_scb_i2c.h ****     *   is serviced or the RX FIFO becomes full.
 613:Generated_Source\PSoC6\pdl\drivers/peripheral/scb/cy_scb_i2c.h ****     * * For slave mode, the drawback is that the slave only NACKs
 614:Generated_Source\PSoC6\pdl\drivers/peripheral/scb/cy_scb_i2c.h ****     *   the master when the RX FIFO becomes full, NOT when the slave write
 615:Generated_Source\PSoC6\pdl\drivers/peripheral/scb/cy_scb_i2c.h ****     *   firmware buffer becomes full.
 616:Generated_Source\PSoC6\pdl\drivers/peripheral/scb/cy_scb_i2c.h ****     * \n In either master or slave mode, all received extra bytes are dropped.
 617:Generated_Source\PSoC6\pdl\drivers/peripheral/scb/cy_scb_i2c.h ****     * \note The useRxFifo option is not available if acceptAddrInFifo is true.
 618:Generated_Source\PSoC6\pdl\drivers/peripheral/scb/cy_scb_i2c.h ****     */
 619:Generated_Source\PSoC6\pdl\drivers/peripheral/scb/cy_scb_i2c.h ****     bool useRxFifo;
 620:Generated_Source\PSoC6\pdl\drivers/peripheral/scb/cy_scb_i2c.h **** 
 621:Generated_Source\PSoC6\pdl\drivers/peripheral/scb/cy_scb_i2c.h ****     /**
 622:Generated_Source\PSoC6\pdl\drivers/peripheral/scb/cy_scb_i2c.h ****     * The SCB provides a TX FIFO in hardware (consult the selected device
 623:Generated_Source\PSoC6\pdl\drivers/peripheral/scb/cy_scb_i2c.h ****     * datasheet to get the actual FIFO size). The useTxFifo option defines how the
 624:Generated_Source\PSoC6\pdl\drivers/peripheral/scb/cy_scb_i2c.h ****     * driver firmware loads data into the TX FIFO:
 625:Generated_Source\PSoC6\pdl\drivers/peripheral/scb/cy_scb_i2c.h ****     * * If this option is enabled, the TX FIFO is fully loaded with data and the
 626:Generated_Source\PSoC6\pdl\drivers/peripheral/scb/cy_scb_i2c.h ****     *   interrupt is enabled to keep the TX FIFO loaded until the end of the transaction.
ARM GAS  C:\Users\seths\AppData\Local\Temp\ccu8EsPT.s 			page 40


 627:Generated_Source\PSoC6\pdl\drivers/peripheral/scb/cy_scb_i2c.h ****     * * If this option is disabled, a single byte is loaded into the TX FIFO and
 628:Generated_Source\PSoC6\pdl\drivers/peripheral/scb/cy_scb_i2c.h ****     *   the interrupt enabled to load the next byte when the TX FIFO becomes empty
 629:Generated_Source\PSoC6\pdl\drivers/peripheral/scb/cy_scb_i2c.h ****     *   (so each byte requires interrupt processing).
 630:Generated_Source\PSoC6\pdl\drivers/peripheral/scb/cy_scb_i2c.h ****     * \n <b>Typically, this option should be enabled</b> to keep the TX FIFO loaded with
 631:Generated_Source\PSoC6\pdl\drivers/peripheral/scb/cy_scb_i2c.h ****     * data and reduce the probability of clock stretching. When there is no data
 632:Generated_Source\PSoC6\pdl\drivers/peripheral/scb/cy_scb_i2c.h ****     * to transfer, clock stretching is applied (the transaction is delayed) until
 633:Generated_Source\PSoC6\pdl\drivers/peripheral/scb/cy_scb_i2c.h ****     * the data is loaded. When this option is enabled, the number of interrupts required
 634:Generated_Source\PSoC6\pdl\drivers/peripheral/scb/cy_scb_i2c.h ****     * to process the transaction is significantly reduced because several
 635:Generated_Source\PSoC6\pdl\drivers/peripheral/scb/cy_scb_i2c.h ****     * bytes are handled at once.
 636:Generated_Source\PSoC6\pdl\drivers/peripheral/scb/cy_scb_i2c.h ****     * \n <b>The drawback of enabling useTxFifo</b> is that the abort operation clears
 637:Generated_Source\PSoC6\pdl\drivers/peripheral/scb/cy_scb_i2c.h ****     * the TX FIFO. The TX FIFO clear operation also clears the shift
 638:Generated_Source\PSoC6\pdl\drivers/peripheral/scb/cy_scb_i2c.h ****     * register. As a result the shifter may be cleared in the middle of a byte
 639:Generated_Source\PSoC6\pdl\drivers/peripheral/scb/cy_scb_i2c.h ****     * transaction, corrupting it. The remaining bits to transaction within the
 640:Generated_Source\PSoC6\pdl\drivers/peripheral/scb/cy_scb_i2c.h ****     * corrupted byte are complemented with 1s. If this is an issue,
 641:Generated_Source\PSoC6\pdl\drivers/peripheral/scb/cy_scb_i2c.h ****     * then do not enable this option.
 642:Generated_Source\PSoC6\pdl\drivers/peripheral/scb/cy_scb_i2c.h ****     */
 643:Generated_Source\PSoC6\pdl\drivers/peripheral/scb/cy_scb_i2c.h ****     bool useTxFifo;
 644:Generated_Source\PSoC6\pdl\drivers/peripheral/scb/cy_scb_i2c.h **** 
 645:Generated_Source\PSoC6\pdl\drivers/peripheral/scb/cy_scb_i2c.h ****     /**
 646:Generated_Source\PSoC6\pdl\drivers/peripheral/scb/cy_scb_i2c.h ****     * The 7-bit right justified slave address, used only for the slave mode
 647:Generated_Source\PSoC6\pdl\drivers/peripheral/scb/cy_scb_i2c.h ****     */
 648:Generated_Source\PSoC6\pdl\drivers/peripheral/scb/cy_scb_i2c.h ****     uint8_t slaveAddress;
 649:Generated_Source\PSoC6\pdl\drivers/peripheral/scb/cy_scb_i2c.h **** 
 650:Generated_Source\PSoC6\pdl\drivers/peripheral/scb/cy_scb_i2c.h ****     /**
 651:Generated_Source\PSoC6\pdl\drivers/peripheral/scb/cy_scb_i2c.h ****     * The slave address mask is used to mask bits of the slave address during 
 652:Generated_Source\PSoC6\pdl\drivers/peripheral/scb/cy_scb_i2c.h ****     * the address match procedure (it is used only for the slave mode). 
 653:Generated_Source\PSoC6\pdl\drivers/peripheral/scb/cy_scb_i2c.h ****     * Bit 0 of the address mask corresponds to the 
 654:Generated_Source\PSoC6\pdl\drivers/peripheral/scb/cy_scb_i2c.h ****     * read/write direction bit and is always a do not care in the address match 
 655:Generated_Source\PSoC6\pdl\drivers/peripheral/scb/cy_scb_i2c.h ****     * therefore must be set 0. Bit value 0 - excludes bit from address 
 656:Generated_Source\PSoC6\pdl\drivers/peripheral/scb/cy_scb_i2c.h ****     * comparison. Bit value 1 - the bit needs to match with the corresponding 
 657:Generated_Source\PSoC6\pdl\drivers/peripheral/scb/cy_scb_i2c.h ****     * bit of the I2C slave address.
 658:Generated_Source\PSoC6\pdl\drivers/peripheral/scb/cy_scb_i2c.h ****     */
 659:Generated_Source\PSoC6\pdl\drivers/peripheral/scb/cy_scb_i2c.h ****     uint8_t slaveAddressMask;
 660:Generated_Source\PSoC6\pdl\drivers/peripheral/scb/cy_scb_i2c.h **** 
 661:Generated_Source\PSoC6\pdl\drivers/peripheral/scb/cy_scb_i2c.h ****     /**
 662:Generated_Source\PSoC6\pdl\drivers/peripheral/scb/cy_scb_i2c.h ****     * True - the slave address is accepted in the RX FIFO, false - the slave
 663:Generated_Source\PSoC6\pdl\drivers/peripheral/scb/cy_scb_i2c.h ****     * addresses are not accepted in the RX FIFO
 664:Generated_Source\PSoC6\pdl\drivers/peripheral/scb/cy_scb_i2c.h ****     */
 665:Generated_Source\PSoC6\pdl\drivers/peripheral/scb/cy_scb_i2c.h ****     bool acceptAddrInFifo;
 666:Generated_Source\PSoC6\pdl\drivers/peripheral/scb/cy_scb_i2c.h **** 
 667:Generated_Source\PSoC6\pdl\drivers/peripheral/scb/cy_scb_i2c.h ****     /**
 668:Generated_Source\PSoC6\pdl\drivers/peripheral/scb/cy_scb_i2c.h ****     * True - accept the general call address; false - ignore the general
 669:Generated_Source\PSoC6\pdl\drivers/peripheral/scb/cy_scb_i2c.h ****     * call address.
 670:Generated_Source\PSoC6\pdl\drivers/peripheral/scb/cy_scb_i2c.h ****     */
 671:Generated_Source\PSoC6\pdl\drivers/peripheral/scb/cy_scb_i2c.h ****     bool ackGeneralAddr;
 672:Generated_Source\PSoC6\pdl\drivers/peripheral/scb/cy_scb_i2c.h **** 
 673:Generated_Source\PSoC6\pdl\drivers/peripheral/scb/cy_scb_i2c.h ****     /**
 674:Generated_Source\PSoC6\pdl\drivers/peripheral/scb/cy_scb_i2c.h ****     * When set, the slave will wake the device from Deep Sleep on an address
 675:Generated_Source\PSoC6\pdl\drivers/peripheral/scb/cy_scb_i2c.h ****     * match (the device datasheet must be consulted to determine which SCBs
 676:Generated_Source\PSoC6\pdl\drivers/peripheral/scb/cy_scb_i2c.h ****     * support this mode)
 677:Generated_Source\PSoC6\pdl\drivers/peripheral/scb/cy_scb_i2c.h ****     */
 678:Generated_Source\PSoC6\pdl\drivers/peripheral/scb/cy_scb_i2c.h ****     bool enableWakeFromSleep;
 679:Generated_Source\PSoC6\pdl\drivers/peripheral/scb/cy_scb_i2c.h **** 
 680:Generated_Source\PSoC6\pdl\drivers/peripheral/scb/cy_scb_i2c.h ****     /**
 681:Generated_Source\PSoC6\pdl\drivers/peripheral/scb/cy_scb_i2c.h ****     * Enables a digital 3-tap median filter to be applied to the inputs
 682:Generated_Source\PSoC6\pdl\drivers/peripheral/scb/cy_scb_i2c.h ****     * of filter glitches on the lines.
 683:Generated_Source\PSoC6\pdl\drivers/peripheral/scb/cy_scb_i2c.h ****     */
ARM GAS  C:\Users\seths\AppData\Local\Temp\ccu8EsPT.s 			page 41


 684:Generated_Source\PSoC6\pdl\drivers/peripheral/scb/cy_scb_i2c.h ****     bool enableDigitalFilter;
 685:Generated_Source\PSoC6\pdl\drivers/peripheral/scb/cy_scb_i2c.h **** 
 686:Generated_Source\PSoC6\pdl\drivers/peripheral/scb/cy_scb_i2c.h ****     /**
 687:Generated_Source\PSoC6\pdl\drivers/peripheral/scb/cy_scb_i2c.h ****     * The number of SCB clock cycles in the low phase of SCL. Only applicable 
 688:Generated_Source\PSoC6\pdl\drivers/peripheral/scb/cy_scb_i2c.h ****     * in master modes. The valid range is 7 to 16.
 689:Generated_Source\PSoC6\pdl\drivers/peripheral/scb/cy_scb_i2c.h ****     */
 690:Generated_Source\PSoC6\pdl\drivers/peripheral/scb/cy_scb_i2c.h ****     uint32_t lowPhaseDutyCycle;
 691:Generated_Source\PSoC6\pdl\drivers/peripheral/scb/cy_scb_i2c.h **** 
 692:Generated_Source\PSoC6\pdl\drivers/peripheral/scb/cy_scb_i2c.h ****     /**
 693:Generated_Source\PSoC6\pdl\drivers/peripheral/scb/cy_scb_i2c.h ****     * The number of SCB clock cycles in the high phase of SCL. Only applicable 
 694:Generated_Source\PSoC6\pdl\drivers/peripheral/scb/cy_scb_i2c.h ****     * in master modes. The valid range is 5 to 16.
 695:Generated_Source\PSoC6\pdl\drivers/peripheral/scb/cy_scb_i2c.h ****     */
 696:Generated_Source\PSoC6\pdl\drivers/peripheral/scb/cy_scb_i2c.h ****     uint32_t highPhaseDutyCycle;
 697:Generated_Source\PSoC6\pdl\drivers/peripheral/scb/cy_scb_i2c.h **** 
 698:Generated_Source\PSoC6\pdl\drivers/peripheral/scb/cy_scb_i2c.h **** } cy_stc_scb_i2c_config_t;
 699:Generated_Source\PSoC6\pdl\drivers/peripheral/scb/cy_scb_i2c.h **** 
 700:Generated_Source\PSoC6\pdl\drivers/peripheral/scb/cy_scb_i2c.h **** /** I2C context structure.
 701:Generated_Source\PSoC6\pdl\drivers/peripheral/scb/cy_scb_i2c.h **** * All fields for the context structure are internal. Firmware never reads or
 702:Generated_Source\PSoC6\pdl\drivers/peripheral/scb/cy_scb_i2c.h **** * writes these values. Firmware allocates the structure and provides the
 703:Generated_Source\PSoC6\pdl\drivers/peripheral/scb/cy_scb_i2c.h **** * address of the structure to the driver in function calls. Firmware must
 704:Generated_Source\PSoC6\pdl\drivers/peripheral/scb/cy_scb_i2c.h **** * ensure that the defined instance of this structure remains in scope
 705:Generated_Source\PSoC6\pdl\drivers/peripheral/scb/cy_scb_i2c.h **** * while the drive is in use.
 706:Generated_Source\PSoC6\pdl\drivers/peripheral/scb/cy_scb_i2c.h **** */
 707:Generated_Source\PSoC6\pdl\drivers/peripheral/scb/cy_scb_i2c.h **** typedef struct cy_stc_scb_i2c_context
 708:Generated_Source\PSoC6\pdl\drivers/peripheral/scb/cy_scb_i2c.h **** {
 709:Generated_Source\PSoC6\pdl\drivers/peripheral/scb/cy_scb_i2c.h ****     /** \cond INTERNAL */
 710:Generated_Source\PSoC6\pdl\drivers/peripheral/scb/cy_scb_i2c.h ****     bool useRxFifo;             /**< Stores RX FIFO configuration */
 711:Generated_Source\PSoC6\pdl\drivers/peripheral/scb/cy_scb_i2c.h ****     bool useTxFifo;             /**< Stores TX FIFO configuration */
 712:Generated_Source\PSoC6\pdl\drivers/peripheral/scb/cy_scb_i2c.h **** 
 713:Generated_Source\PSoC6\pdl\drivers/peripheral/scb/cy_scb_i2c.h ****     volatile uint32_t state;    /**< The driver state */
 714:Generated_Source\PSoC6\pdl\drivers/peripheral/scb/cy_scb_i2c.h **** 
 715:Generated_Source\PSoC6\pdl\drivers/peripheral/scb/cy_scb_i2c.h ****     volatile uint32_t masterStatus; /**< The master status */
 716:Generated_Source\PSoC6\pdl\drivers/peripheral/scb/cy_scb_i2c.h ****     bool     masterPause;           /**< Stores how the master ends the transaction */
 717:Generated_Source\PSoC6\pdl\drivers/peripheral/scb/cy_scb_i2c.h ****     bool     masterRdDir;           /**< The direction of the master transaction */
 718:Generated_Source\PSoC6\pdl\drivers/peripheral/scb/cy_scb_i2c.h **** 
 719:Generated_Source\PSoC6\pdl\drivers/peripheral/scb/cy_scb_i2c.h ****     uint8_t  *masterBuffer;     /**< The pointer to the master buffer (either for a transmit or a r
 720:Generated_Source\PSoC6\pdl\drivers/peripheral/scb/cy_scb_i2c.h ****     uint32_t  masterBufferSize;         /**< The current master buffer size */
 721:Generated_Source\PSoC6\pdl\drivers/peripheral/scb/cy_scb_i2c.h ****     volatile uint32_t masterBufferIdx;  /**< The current location in the master buffer */
 722:Generated_Source\PSoC6\pdl\drivers/peripheral/scb/cy_scb_i2c.h ****     volatile uint32_t masterNumBytes;   /**< The number of bytes to send or receive */
 723:Generated_Source\PSoC6\pdl\drivers/peripheral/scb/cy_scb_i2c.h **** 
 724:Generated_Source\PSoC6\pdl\drivers/peripheral/scb/cy_scb_i2c.h ****     volatile uint32_t slaveStatus;       /**< The slave status */
 725:Generated_Source\PSoC6\pdl\drivers/peripheral/scb/cy_scb_i2c.h ****     volatile bool     slaveRdBufEmpty;   /**< Tracks slave Read buffer empty event */
 726:Generated_Source\PSoC6\pdl\drivers/peripheral/scb/cy_scb_i2c.h **** 
 727:Generated_Source\PSoC6\pdl\drivers/peripheral/scb/cy_scb_i2c.h ****     uint8_t  *slaveTxBuffer;             /**< The pointer to the slave transmit buffer (a master re
 728:Generated_Source\PSoC6\pdl\drivers/peripheral/scb/cy_scb_i2c.h ****     uint32_t  slaveTxBufferSize;         /**< The current slave transmit buffer size */
 729:Generated_Source\PSoC6\pdl\drivers/peripheral/scb/cy_scb_i2c.h ****     volatile uint32_t slaveTxBufferIdx;  /**< The current location in the slave buffer */
 730:Generated_Source\PSoC6\pdl\drivers/peripheral/scb/cy_scb_i2c.h ****     volatile uint32_t slaveTxBufferCnt;  /**< The number of transferred bytes */
 731:Generated_Source\PSoC6\pdl\drivers/peripheral/scb/cy_scb_i2c.h **** 
 732:Generated_Source\PSoC6\pdl\drivers/peripheral/scb/cy_scb_i2c.h ****     uint8_t  *slaveRxBuffer;             /**< The pointer to the slave receive buffer (a master wri
 733:Generated_Source\PSoC6\pdl\drivers/peripheral/scb/cy_scb_i2c.h ****     uint32_t  slaveRxBufferSize;         /**< The current slave receive buffer size */
 734:Generated_Source\PSoC6\pdl\drivers/peripheral/scb/cy_scb_i2c.h ****     volatile uint32_t slaveRxBufferIdx;  /**< The current location in the slave buffer */
 735:Generated_Source\PSoC6\pdl\drivers/peripheral/scb/cy_scb_i2c.h **** 
 736:Generated_Source\PSoC6\pdl\drivers/peripheral/scb/cy_scb_i2c.h ****     /**
 737:Generated_Source\PSoC6\pdl\drivers/peripheral/scb/cy_scb_i2c.h ****     * The pointer to an event callback that is called when any of
 738:Generated_Source\PSoC6\pdl\drivers/peripheral/scb/cy_scb_i2c.h ****     * \ref group_scb_i2c_macros_callback_events occurs
 739:Generated_Source\PSoC6\pdl\drivers/peripheral/scb/cy_scb_i2c.h ****     */
 740:Generated_Source\PSoC6\pdl\drivers/peripheral/scb/cy_scb_i2c.h ****     cy_cb_scb_i2c_handle_events_t cbEvents;
ARM GAS  C:\Users\seths\AppData\Local\Temp\ccu8EsPT.s 			page 42


 741:Generated_Source\PSoC6\pdl\drivers/peripheral/scb/cy_scb_i2c.h **** 
 742:Generated_Source\PSoC6\pdl\drivers/peripheral/scb/cy_scb_i2c.h ****     /**
 743:Generated_Source\PSoC6\pdl\drivers/peripheral/scb/cy_scb_i2c.h ****     * The pointer to an address callback that is called when any of
 744:Generated_Source\PSoC6\pdl\drivers/peripheral/scb/cy_scb_i2c.h ****     * \ref group_scb_i2c_macros_addr_callback_events occurs (applicable only
 745:Generated_Source\PSoC6\pdl\drivers/peripheral/scb/cy_scb_i2c.h ****     * for the slave)
 746:Generated_Source\PSoC6\pdl\drivers/peripheral/scb/cy_scb_i2c.h ****     */
 747:Generated_Source\PSoC6\pdl\drivers/peripheral/scb/cy_scb_i2c.h ****     cy_cb_scb_i2c_handle_addr_t   cbAddr;
 748:Generated_Source\PSoC6\pdl\drivers/peripheral/scb/cy_scb_i2c.h **** 
 749:Generated_Source\PSoC6\pdl\drivers/peripheral/scb/cy_scb_i2c.h ****     /** \endcond */
 750:Generated_Source\PSoC6\pdl\drivers/peripheral/scb/cy_scb_i2c.h **** } cy_stc_scb_i2c_context_t;
 751:Generated_Source\PSoC6\pdl\drivers/peripheral/scb/cy_scb_i2c.h **** 
 752:Generated_Source\PSoC6\pdl\drivers/peripheral/scb/cy_scb_i2c.h **** /** The I2C Master transfer structure */
 753:Generated_Source\PSoC6\pdl\drivers/peripheral/scb/cy_scb_i2c.h **** typedef struct cy_stc_scb_i2c_master_xfer_config
 754:Generated_Source\PSoC6\pdl\drivers/peripheral/scb/cy_scb_i2c.h **** {
 755:Generated_Source\PSoC6\pdl\drivers/peripheral/scb/cy_scb_i2c.h ****     /** The 7-bit right justified slave address to communicate with */
 756:Generated_Source\PSoC6\pdl\drivers/peripheral/scb/cy_scb_i2c.h ****     uint8_t  slaveAddress;
 757:Generated_Source\PSoC6\pdl\drivers/peripheral/scb/cy_scb_i2c.h **** 
 758:Generated_Source\PSoC6\pdl\drivers/peripheral/scb/cy_scb_i2c.h ****     /**
 759:Generated_Source\PSoC6\pdl\drivers/peripheral/scb/cy_scb_i2c.h ****     * The pointer to the buffer for data to read from the slave or 
 760:Generated_Source\PSoC6\pdl\drivers/peripheral/scb/cy_scb_i2c.h ****     * data to write into the slave
 761:Generated_Source\PSoC6\pdl\drivers/peripheral/scb/cy_scb_i2c.h ****     */
 762:Generated_Source\PSoC6\pdl\drivers/peripheral/scb/cy_scb_i2c.h ****     uint8_t  *buffer;
 763:Generated_Source\PSoC6\pdl\drivers/peripheral/scb/cy_scb_i2c.h **** 
 764:Generated_Source\PSoC6\pdl\drivers/peripheral/scb/cy_scb_i2c.h ****     /** The size of the buffer */
 765:Generated_Source\PSoC6\pdl\drivers/peripheral/scb/cy_scb_i2c.h ****     uint32_t bufferSize;
 766:Generated_Source\PSoC6\pdl\drivers/peripheral/scb/cy_scb_i2c.h **** 
 767:Generated_Source\PSoC6\pdl\drivers/peripheral/scb/cy_scb_i2c.h ****     /**
 768:Generated_Source\PSoC6\pdl\drivers/peripheral/scb/cy_scb_i2c.h ****     * The transfer operation is pending - the stop condition will not
 769:Generated_Source\PSoC6\pdl\drivers/peripheral/scb/cy_scb_i2c.h ****     * be generated. 
 770:Generated_Source\PSoC6\pdl\drivers/peripheral/scb/cy_scb_i2c.h ****     * A new transfer starts from start condition and ends 
 771:Generated_Source\PSoC6\pdl\drivers/peripheral/scb/cy_scb_i2c.h ****     * with or without stop condition. The stop condition releases I2C 
 772:Generated_Source\PSoC6\pdl\drivers/peripheral/scb/cy_scb_i2c.h ****     * bus from master control. When stop is not generated master keeps 
 773:Generated_Source\PSoC6\pdl\drivers/peripheral/scb/cy_scb_i2c.h ****     * bus control (transfer is pending) and can issue the next transfer 
 774:Generated_Source\PSoC6\pdl\drivers/peripheral/scb/cy_scb_i2c.h ****     * using restart condition instead of start. The I2C driver 
 775:Generated_Source\PSoC6\pdl\drivers/peripheral/scb/cy_scb_i2c.h ****     * automatically generates start or restart condition depends on 
 776:Generated_Source\PSoC6\pdl\drivers/peripheral/scb/cy_scb_i2c.h ****     * current state.
 777:Generated_Source\PSoC6\pdl\drivers/peripheral/scb/cy_scb_i2c.h ****     * Note if master lost arbitration during transfer it stops control 
 778:Generated_Source\PSoC6\pdl\drivers/peripheral/scb/cy_scb_i2c.h ****     * the bus and does not send/receive data or generate stop condition - the 
 779:Generated_Source\PSoC6\pdl\drivers/peripheral/scb/cy_scb_i2c.h ****     * transfer ends.
 780:Generated_Source\PSoC6\pdl\drivers/peripheral/scb/cy_scb_i2c.h ****     */
 781:Generated_Source\PSoC6\pdl\drivers/peripheral/scb/cy_scb_i2c.h ****     bool     xferPending;
 782:Generated_Source\PSoC6\pdl\drivers/peripheral/scb/cy_scb_i2c.h **** } cy_stc_scb_i2c_master_xfer_config_t;
 783:Generated_Source\PSoC6\pdl\drivers/peripheral/scb/cy_scb_i2c.h **** /** \} group_scb_i2c_data_structures */
 784:Generated_Source\PSoC6\pdl\drivers/peripheral/scb/cy_scb_i2c.h **** 
 785:Generated_Source\PSoC6\pdl\drivers/peripheral/scb/cy_scb_i2c.h **** 
 786:Generated_Source\PSoC6\pdl\drivers/peripheral/scb/cy_scb_i2c.h **** /*******************************************************************************
 787:Generated_Source\PSoC6\pdl\drivers/peripheral/scb/cy_scb_i2c.h **** *                            Function Prototypes
 788:Generated_Source\PSoC6\pdl\drivers/peripheral/scb/cy_scb_i2c.h **** *******************************************************************************/
 789:Generated_Source\PSoC6\pdl\drivers/peripheral/scb/cy_scb_i2c.h **** 
 790:Generated_Source\PSoC6\pdl\drivers/peripheral/scb/cy_scb_i2c.h **** /**
 791:Generated_Source\PSoC6\pdl\drivers/peripheral/scb/cy_scb_i2c.h **** * \addtogroup group_scb_i2c_general_functions
 792:Generated_Source\PSoC6\pdl\drivers/peripheral/scb/cy_scb_i2c.h **** * \{
 793:Generated_Source\PSoC6\pdl\drivers/peripheral/scb/cy_scb_i2c.h **** */
 794:Generated_Source\PSoC6\pdl\drivers/peripheral/scb/cy_scb_i2c.h **** cy_en_scb_i2c_status_t Cy_SCB_I2C_Init(CySCB_Type *base, cy_stc_scb_i2c_config_t const *config,
 795:Generated_Source\PSoC6\pdl\drivers/peripheral/scb/cy_scb_i2c.h ****                                        cy_stc_scb_i2c_context_t *context);
 796:Generated_Source\PSoC6\pdl\drivers/peripheral/scb/cy_scb_i2c.h **** void Cy_SCB_I2C_DeInit(CySCB_Type *base);
 797:Generated_Source\PSoC6\pdl\drivers/peripheral/scb/cy_scb_i2c.h **** __STATIC_INLINE void Cy_SCB_I2C_Enable(CySCB_Type *base);
ARM GAS  C:\Users\seths\AppData\Local\Temp\ccu8EsPT.s 			page 43


 798:Generated_Source\PSoC6\pdl\drivers/peripheral/scb/cy_scb_i2c.h **** void Cy_SCB_I2C_Disable(CySCB_Type *base, cy_stc_scb_i2c_context_t *context);
 799:Generated_Source\PSoC6\pdl\drivers/peripheral/scb/cy_scb_i2c.h **** 
 800:Generated_Source\PSoC6\pdl\drivers/peripheral/scb/cy_scb_i2c.h **** uint32_t Cy_SCB_I2C_SetDataRate(CySCB_Type *base, uint32_t dataRateHz, uint32_t scbClockHz);
 801:Generated_Source\PSoC6\pdl\drivers/peripheral/scb/cy_scb_i2c.h **** uint32_t Cy_SCB_I2C_GetDataRate(CySCB_Type const *base, uint32_t scbClockHz);
 802:Generated_Source\PSoC6\pdl\drivers/peripheral/scb/cy_scb_i2c.h **** 
 803:Generated_Source\PSoC6\pdl\drivers/peripheral/scb/cy_scb_i2c.h **** __STATIC_INLINE void     Cy_SCB_I2C_SlaveSetAddress(CySCB_Type *base, uint8_t addr);
 804:Generated_Source\PSoC6\pdl\drivers/peripheral/scb/cy_scb_i2c.h **** __STATIC_INLINE uint32_t Cy_SCB_I2C_SlaveGetAddress(CySCB_Type const *base);
 805:Generated_Source\PSoC6\pdl\drivers/peripheral/scb/cy_scb_i2c.h **** __STATIC_INLINE void     Cy_SCB_I2C_SlaveSetAddressMask(CySCB_Type *base, uint8_t addrMask);
 806:Generated_Source\PSoC6\pdl\drivers/peripheral/scb/cy_scb_i2c.h **** __STATIC_INLINE uint32_t Cy_SCB_I2C_SlaveGetAddressMask(CySCB_Type const *base);
 807:Generated_Source\PSoC6\pdl\drivers/peripheral/scb/cy_scb_i2c.h **** 
 808:Generated_Source\PSoC6\pdl\drivers/peripheral/scb/cy_scb_i2c.h **** __STATIC_INLINE bool Cy_SCB_I2C_IsBusBusy(CySCB_Type const *base);
 809:Generated_Source\PSoC6\pdl\drivers/peripheral/scb/cy_scb_i2c.h **** 
 810:Generated_Source\PSoC6\pdl\drivers/peripheral/scb/cy_scb_i2c.h **** __STATIC_INLINE void Cy_SCB_I2C_MasterSetLowPhaseDutyCycle (CySCB_Type *base, uint32_t clockCycles)
 811:Generated_Source\PSoC6\pdl\drivers/peripheral/scb/cy_scb_i2c.h **** __STATIC_INLINE void Cy_SCB_I2C_MasterSetHighPhaseDutyCycle(CySCB_Type *base, uint32_t clockCycles)
 812:Generated_Source\PSoC6\pdl\drivers/peripheral/scb/cy_scb_i2c.h **** /** \} group_scb_i2c_general_functions */
 813:Generated_Source\PSoC6\pdl\drivers/peripheral/scb/cy_scb_i2c.h **** 
 814:Generated_Source\PSoC6\pdl\drivers/peripheral/scb/cy_scb_i2c.h **** /**
 815:Generated_Source\PSoC6\pdl\drivers/peripheral/scb/cy_scb_i2c.h **** * \addtogroup group_scb_i2c_slave_functions
 816:Generated_Source\PSoC6\pdl\drivers/peripheral/scb/cy_scb_i2c.h **** * \{
 817:Generated_Source\PSoC6\pdl\drivers/peripheral/scb/cy_scb_i2c.h **** */
 818:Generated_Source\PSoC6\pdl\drivers/peripheral/scb/cy_scb_i2c.h **** void Cy_SCB_I2C_SlaveConfigReadBuf (CySCB_Type const *base, uint8_t *buffer, uint32_t size,
 819:Generated_Source\PSoC6\pdl\drivers/peripheral/scb/cy_scb_i2c.h ****                                     cy_stc_scb_i2c_context_t *context);
 820:Generated_Source\PSoC6\pdl\drivers/peripheral/scb/cy_scb_i2c.h **** void Cy_SCB_I2C_SlaveAbortRead     (CySCB_Type *base, cy_stc_scb_i2c_context_t *context);
 821:Generated_Source\PSoC6\pdl\drivers/peripheral/scb/cy_scb_i2c.h **** void Cy_SCB_I2C_SlaveConfigWriteBuf(CySCB_Type const *base, uint8_t *buffer, uint32_t size,
 822:Generated_Source\PSoC6\pdl\drivers/peripheral/scb/cy_scb_i2c.h ****                                     cy_stc_scb_i2c_context_t *context);
 823:Generated_Source\PSoC6\pdl\drivers/peripheral/scb/cy_scb_i2c.h **** void Cy_SCB_I2C_SlaveAbortWrite    (CySCB_Type *base, cy_stc_scb_i2c_context_t *context);
 824:Generated_Source\PSoC6\pdl\drivers/peripheral/scb/cy_scb_i2c.h **** 
 825:Generated_Source\PSoC6\pdl\drivers/peripheral/scb/cy_scb_i2c.h **** uint32_t Cy_SCB_I2C_SlaveGetStatus       (CySCB_Type const *base, cy_stc_scb_i2c_context_t const *c
 826:Generated_Source\PSoC6\pdl\drivers/peripheral/scb/cy_scb_i2c.h **** uint32_t Cy_SCB_I2C_SlaveClearReadStatus (CySCB_Type const *base, cy_stc_scb_i2c_context_t *context
 827:Generated_Source\PSoC6\pdl\drivers/peripheral/scb/cy_scb_i2c.h **** uint32_t Cy_SCB_I2C_SlaveClearWriteStatus(CySCB_Type const *base, cy_stc_scb_i2c_context_t *context
 828:Generated_Source\PSoC6\pdl\drivers/peripheral/scb/cy_scb_i2c.h **** 
 829:Generated_Source\PSoC6\pdl\drivers/peripheral/scb/cy_scb_i2c.h **** uint32_t Cy_SCB_I2C_SlaveGetReadTransferCount (CySCB_Type const *base, cy_stc_scb_i2c_context_t con
 830:Generated_Source\PSoC6\pdl\drivers/peripheral/scb/cy_scb_i2c.h **** uint32_t Cy_SCB_I2C_SlaveGetWriteTransferCount(CySCB_Type const *base, cy_stc_scb_i2c_context_t con
 831:Generated_Source\PSoC6\pdl\drivers/peripheral/scb/cy_scb_i2c.h **** /** \} group_scb_i2c_slave_functions */
 832:Generated_Source\PSoC6\pdl\drivers/peripheral/scb/cy_scb_i2c.h **** 
 833:Generated_Source\PSoC6\pdl\drivers/peripheral/scb/cy_scb_i2c.h **** /**
 834:Generated_Source\PSoC6\pdl\drivers/peripheral/scb/cy_scb_i2c.h **** * \addtogroup group_scb_i2c_master_high_level_functions
 835:Generated_Source\PSoC6\pdl\drivers/peripheral/scb/cy_scb_i2c.h **** * \{
 836:Generated_Source\PSoC6\pdl\drivers/peripheral/scb/cy_scb_i2c.h **** */
 837:Generated_Source\PSoC6\pdl\drivers/peripheral/scb/cy_scb_i2c.h **** cy_en_scb_i2c_status_t Cy_SCB_I2C_MasterWrite(CySCB_Type *base, cy_stc_scb_i2c_master_xfer_config_t
 838:Generated_Source\PSoC6\pdl\drivers/peripheral/scb/cy_scb_i2c.h ****                                               cy_stc_scb_i2c_context_t *context);
 839:Generated_Source\PSoC6\pdl\drivers/peripheral/scb/cy_scb_i2c.h **** void     Cy_SCB_I2C_MasterAbortWrite         (CySCB_Type *base, cy_stc_scb_i2c_context_t *context);
 840:Generated_Source\PSoC6\pdl\drivers/peripheral/scb/cy_scb_i2c.h **** cy_en_scb_i2c_status_t Cy_SCB_I2C_MasterRead (CySCB_Type *base, cy_stc_scb_i2c_master_xfer_config_t
 841:Generated_Source\PSoC6\pdl\drivers/peripheral/scb/cy_scb_i2c.h ****                                               cy_stc_scb_i2c_context_t *context);
 842:Generated_Source\PSoC6\pdl\drivers/peripheral/scb/cy_scb_i2c.h **** void     Cy_SCB_I2C_MasterAbortRead          (CySCB_Type *base, cy_stc_scb_i2c_context_t *context);
 843:Generated_Source\PSoC6\pdl\drivers/peripheral/scb/cy_scb_i2c.h **** uint32_t Cy_SCB_I2C_MasterGetStatus          (CySCB_Type const *base, cy_stc_scb_i2c_context_t cons
 844:Generated_Source\PSoC6\pdl\drivers/peripheral/scb/cy_scb_i2c.h **** uint32_t Cy_SCB_I2C_MasterGetTransferCount   (CySCB_Type const *base, cy_stc_scb_i2c_context_t cons
 845:Generated_Source\PSoC6\pdl\drivers/peripheral/scb/cy_scb_i2c.h **** /** \} group_scb_i2c_master_low_high_functions */
 846:Generated_Source\PSoC6\pdl\drivers/peripheral/scb/cy_scb_i2c.h **** 
 847:Generated_Source\PSoC6\pdl\drivers/peripheral/scb/cy_scb_i2c.h **** /**
 848:Generated_Source\PSoC6\pdl\drivers/peripheral/scb/cy_scb_i2c.h **** * \addtogroup group_scb_i2c_master_low_level_functions
 849:Generated_Source\PSoC6\pdl\drivers/peripheral/scb/cy_scb_i2c.h **** * \{
 850:Generated_Source\PSoC6\pdl\drivers/peripheral/scb/cy_scb_i2c.h **** */
 851:Generated_Source\PSoC6\pdl\drivers/peripheral/scb/cy_scb_i2c.h **** cy_en_scb_i2c_status_t Cy_SCB_I2C_MasterSendStart  (CySCB_Type *base, uint32_t address, cy_en_scb_i
 852:Generated_Source\PSoC6\pdl\drivers/peripheral/scb/cy_scb_i2c.h ****                                                     uint32_t timeoutMs, cy_stc_scb_i2c_context_t *c
 853:Generated_Source\PSoC6\pdl\drivers/peripheral/scb/cy_scb_i2c.h **** cy_en_scb_i2c_status_t Cy_SCB_I2C_MasterSendReStart(CySCB_Type *base, uint32_t address, cy_en_scb_i
 854:Generated_Source\PSoC6\pdl\drivers/peripheral/scb/cy_scb_i2c.h ****                                                     uint32_t timeoutMs, cy_stc_scb_i2c_context_t *c
ARM GAS  C:\Users\seths\AppData\Local\Temp\ccu8EsPT.s 			page 44


 855:Generated_Source\PSoC6\pdl\drivers/peripheral/scb/cy_scb_i2c.h **** cy_en_scb_i2c_status_t Cy_SCB_I2C_MasterSendStop   (CySCB_Type *base,uint32_t timeoutMs, cy_stc_scb
 856:Generated_Source\PSoC6\pdl\drivers/peripheral/scb/cy_scb_i2c.h **** cy_en_scb_i2c_status_t Cy_SCB_I2C_MasterReadByte   (CySCB_Type *base, cy_en_scb_i2c_command_t ackNa
 857:Generated_Source\PSoC6\pdl\drivers/peripheral/scb/cy_scb_i2c.h ****                                                     uint32_t timeoutMs, cy_stc_scb_i2c_context_t *c
