ARM GAS  C:\Users\seths\AppData\Local\Temp\ccj52PSo.s 			page 1


   1              		.syntax unified
   2              		.cpu cortex-m0plus
   3              		.fpu softvfp
   4              		.eabi_attribute 20, 1
   5              		.eabi_attribute 21, 1
   6              		.eabi_attribute 23, 3
   7              		.eabi_attribute 24, 1
   8              		.eabi_attribute 25, 1
   9              		.eabi_attribute 26, 1
  10              		.eabi_attribute 30, 1
  11              		.eabi_attribute 34, 0
  12              		.eabi_attribute 18, 4
  13              		.thumb
  14              		.syntax unified
  15              		.file	"connection_ble.c"
  16              		.text
  17              	.Ltext0:
  18              		.cfi_sections	.debug_frame
  19              		.section	.text.getConnection,"ax",%progbits
  20              		.align	2
  21              		.global	getConnection
  22              		.code	16
  23              		.thumb_func
  24              		.type	getConnection, %function
  25              	getConnection:
  26              	.LFB522:
  27              		.file 1 "connection_ble.c"
   1:connection_ble.c **** /**
   2:connection_ble.c **** *
   3:connection_ble.c **** * @file
   4:connection_ble.c **** * common_ble.h
   5:connection_ble.c **** *
   6:connection_ble.c **** * @brief
   7:connection_ble.c **** * Interface for controlling common BLE functionality
   8:connection_ble.c **** *
   9:connection_ble.c **** * Author: Schilbe, Seth
  10:connection_ble.c **** * Date: 2019 - 12 - 01 
  11:connection_ble.c **** */
  12:connection_ble.c **** 
  13:connection_ble.c **** /*------------------------------------------------------------
  14:connection_ble.c **** INCLUDES
  15:connection_ble.c **** ------------------------------------------------------------*/
  16:connection_ble.c **** #include "connection_ble.h"
  17:connection_ble.c **** #include <stdio.h>
  18:connection_ble.c **** 
  19:connection_ble.c **** /*------------------------------------------------------------
  20:connection_ble.c **** LITERAL CONSTANTS
  21:connection_ble.c **** ------------------------------------------------------------*/
  22:connection_ble.c **** 
  23:connection_ble.c **** /*------------------------------------------------------------
  24:connection_ble.c **** MACROS
  25:connection_ble.c **** ------------------------------------------------------------*/
  26:connection_ble.c **** 
  27:connection_ble.c **** /*------------------------------------------------------------
  28:connection_ble.c **** TYPES
  29:connection_ble.c **** ------------------------------------------------------------*/
  30:connection_ble.c **** 
ARM GAS  C:\Users\seths\AppData\Local\Temp\ccj52PSo.s 			page 2


  31:connection_ble.c **** /*------------------------------------------------------------
  32:connection_ble.c **** MEMORY CONSTANTS
  33:connection_ble.c **** ------------------------------------------------------------*/
  34:connection_ble.c **** 
  35:connection_ble.c **** /*------------------------------------------------------------
  36:connection_ble.c **** VARIABLES
  37:connection_ble.c **** ------------------------------------------------------------*/
  38:connection_ble.c **** cy_stc_ble_conn_handle_t connHandle;
  39:connection_ble.c **** 
  40:connection_ble.c **** /*------------------------------------------------------------
  41:connection_ble.c **** PROCEDURES
  42:connection_ble.c **** ------------------------------------------------------------*/
  43:connection_ble.c **** cy_stc_ble_conn_handle_t getConnection(void)
  44:connection_ble.c **** {
  28              		.loc 1 44 0
  29              		.cfi_startproc
  30              		@ args = 0, pretend = 0, frame = 8
  31              		@ frame_needed = 0, uses_anonymous_args = 0
  32 0000 10B5     		push	{r4, lr}
  33              		.cfi_def_cfa_offset 8
  34              		.cfi_offset 4, -8
  35              		.cfi_offset 14, -4
  36 0002 82B0     		sub	sp, sp, #8
  37              		.cfi_def_cfa_offset 16
  45:connection_ble.c ****     return connHandle;
  38              		.loc 1 45 0
  39 0004 01AC     		add	r4, sp, #4
  40 0006 0222     		movs	r2, #2
  41 0008 0449     		ldr	r1, .L2
  42 000a 2000     		movs	r0, r4
  43 000c FFF7FEFF 		bl	memcpy
  44              	.LVL0:
  45 0010 6078     		ldrb	r0, [r4, #1]
  46 0012 0002     		lsls	r0, r0, #8
  47 0014 2378     		ldrb	r3, [r4]
  48 0016 1843     		orrs	r0, r3
  46:connection_ble.c **** }
  49              		.loc 1 46 0
  50 0018 02B0     		add	sp, sp, #8
  51              		@ sp needed
  52 001a 10BD     		pop	{r4, pc}
  53              	.L3:
  54              		.align	2
  55              	.L2:
  56 001c 00000000 		.word	connHandle
  57              		.cfi_endproc
  58              	.LFE522:
  59              		.size	getConnection, .-getConnection
  60              		.section	.text.setConnection,"ax",%progbits
  61              		.align	2
  62              		.global	setConnection
  63              		.code	16
  64              		.thumb_func
  65              		.type	setConnection, %function
  66              	setConnection:
  67              	.LFB523:
  47:connection_ble.c **** 
ARM GAS  C:\Users\seths\AppData\Local\Temp\ccj52PSo.s 			page 3


  48:connection_ble.c **** void setConnection( cy_stc_ble_conn_handle_t newConnHandle )
  49:connection_ble.c **** {
  68              		.loc 1 49 0
  69              		.cfi_startproc
  70              		@ args = 0, pretend = 0, frame = 8
  71              		@ frame_needed = 0, uses_anonymous_args = 0
  72 0000 10B5     		push	{r4, lr}
  73              		.cfi_def_cfa_offset 8
  74              		.cfi_offset 4, -8
  75              		.cfi_offset 14, -4
  76 0002 82B0     		sub	sp, sp, #8
  77              		.cfi_def_cfa_offset 16
  78 0004 01A9     		add	r1, sp, #4
  79 0006 0880     		strh	r0, [r1]
  50:connection_ble.c ****     connHandle = newConnHandle;
  80              		.loc 1 50 0
  81 0008 054C     		ldr	r4, .L5
  82 000a 0222     		movs	r2, #2
  83 000c 2000     		movs	r0, r4
  84 000e FFF7FEFF 		bl	memcpy
  85              	.LVL1:
  51:connection_ble.c ****     printf("Conn Handle: %d, %d\n", connHandle.attId, connHandle.bdHandle );
  86              		.loc 1 51 0
  87 0012 6178     		ldrb	r1, [r4, #1]
  88 0014 2278     		ldrb	r2, [r4]
  89 0016 0348     		ldr	r0, .L5+4
  90 0018 FFF7FEFF 		bl	printf
  91              	.LVL2:
  52:connection_ble.c **** }
  92              		.loc 1 52 0
  93 001c 02B0     		add	sp, sp, #8
  94              		@ sp needed
  95 001e 10BD     		pop	{r4, pc}
  96              	.L6:
  97              		.align	2
  98              	.L5:
  99 0020 00000000 		.word	connHandle
 100 0024 00000000 		.word	.LC2
 101              		.cfi_endproc
 102              	.LFE523:
 103              		.size	setConnection, .-setConnection
 104              		.comm	connHandle,2,4
 105              		.section	.rodata.str1.4,"aMS",%progbits,1
 106              		.align	2
 107              	.LC2:
 108 0000 436F6E6E 		.ascii	"Conn Handle: %d, %d\012\000"
 108      2048616E 
 108      646C653A 
 108      2025642C 
 108      2025640A 
 109              		.text
 110              	.Letext0:
 111              		.file 2 "c:\\program files (x86)\\cypress\\psoc creator\\4.2\\psoc creator\\import\\gnu\\arm\\5.4.
 112              		.file 3 "c:\\program files (x86)\\cypress\\psoc creator\\4.2\\psoc creator\\import\\gnu\\arm\\5.4.
 113              		.file 4 "Generated_Source\\PSoC6\\pdl\\drivers/peripheral/device/cy_device.h"
 114              		.file 5 "Generated_Source\\PSoC6\\pdl\\drivers/peripheral/scb/cy_scb_uart.h"
 115              		.file 6 "Generated_Source\\PSoC6\\pdl\\drivers/peripheral/tcpwm/cy_tcpwm_counter.h"
ARM GAS  C:\Users\seths\AppData\Local\Temp\ccj52PSo.s 			page 4


 116              		.file 7 "Generated_Source\\PSoC6\\pdl\\drivers/peripheral/tcpwm/cy_tcpwm_pwm.h"
 117              		.file 8 "Generated_Source\\PSoC6\\pdl\\middleware/ble/cy_ble_stack_host_main.h"
 118              		.file 9 "Generated_Source\\PSoC6/UART_1.h"
 119              		.file 10 "Generated_Source\\PSoC6/PWM_GREEN_BLINK.h"
 120              		.file 11 "Generated_Source\\PSoC6/PWM_RED_BLINK.h"
 121              		.file 12 "Generated_Source\\PSoC6/Timer.h"
 122              		.file 13 "c:\\program files (x86)\\cypress\\psoc creator\\4.2\\psoc creator\\import\\gnu\\arm\\5.4