ARM GAS  C:\Users\seths\AppData\Local\Temp\cc222YM3.s 			page 1


   1              		.syntax unified
   2              		.cpu cortex-m0plus
   3              		.fpu softvfp
   4              		.eabi_attribute 20, 1
   5              		.eabi_attribute 21, 1
   6              		.eabi_attribute 23, 3
   7              		.eabi_attribute 24, 1
   8              		.eabi_attribute 25, 1
   9              		.eabi_attribute 26, 1
  10              		.eabi_attribute 30, 1
  11              		.eabi_attribute 34, 0
  12              		.eabi_attribute 18, 4
  13              		.thumb
  14              		.syntax unified
  15              		.file	"force_ble.c"
  16              		.text
  17              	.Ltext0:
  18              		.cfi_sections	.debug_frame
  19              		.section	.text.bleForceInit,"ax",%progbits
  20              		.align	2
  21              		.global	bleForceInit
  22              		.code	16
  23              		.thumb_func
  24              		.type	bleForceInit, %function
  25              	bleForceInit:
  26              	.LFB522:
  27              		.file 1 "force_ble.c"
   1:force_ble.c   **** /**
   2:force_ble.c   **** *
   3:force_ble.c   **** * @file
   4:force_ble.c   **** * force_ble.c
   5:force_ble.c   **** *
   6:force_ble.c   **** * @brief
   7:force_ble.c   **** * Implementation for controlling the Force service
   8:force_ble.c   **** *
   9:force_ble.c   **** * Author: Schilbe, Seth
  10:force_ble.c   **** * Date: 2019 - 12 - 01 
  11:force_ble.c   **** */
  12:force_ble.c   **** 
  13:force_ble.c   **** /*------------------------------------------------------------
  14:force_ble.c   **** INCLUDES
  15:force_ble.c   **** ------------------------------------------------------------*/
  16:force_ble.c   **** #include "connection_ble.h"
  17:force_ble.c   **** #include "force_ble.h"
  18:force_ble.c   **** #include "project.h"
  19:force_ble.c   **** #include <stdio.h>
  20:force_ble.c   **** 
  21:force_ble.c   **** /*------------------------------------------------------------
  22:force_ble.c   **** LITERAL CONSTANTS
  23:force_ble.c   **** ------------------------------------------------------------*/
  24:force_ble.c   **** #define FORCE_NOTIFICATION_LEN  (20u)
  25:force_ble.c   **** 
  26:force_ble.c   **** /*------------------------------------------------------------
  27:force_ble.c   **** MACROS
  28:force_ble.c   **** ------------------------------------------------------------*/
  29:force_ble.c   **** 
  30:force_ble.c   **** /*------------------------------------------------------------
ARM GAS  C:\Users\seths\AppData\Local\Temp\cc222YM3.s 			page 2


  31:force_ble.c   **** TYPES
  32:force_ble.c   **** ------------------------------------------------------------*/
  33:force_ble.c   **** 
  34:force_ble.c   **** /*------------------------------------------------------------
  35:force_ble.c   **** MEMORY CONSTANTS
  36:force_ble.c   **** ------------------------------------------------------------*/
  37:force_ble.c   **** 
  38:force_ble.c   **** /*------------------------------------------------------------
  39:force_ble.c   **** VARIABLES
  40:force_ble.c   **** ------------------------------------------------------------*/
  41:force_ble.c   **** uint8_t currentForceData[FORCE_NOTIFICATION_LEN] = {0};
  42:force_ble.c   **** bool forceNotificationsEnabled = false;
  43:force_ble.c   **** 
  44:force_ble.c   **** /*------------------------------------------------------------
  45:force_ble.c   **** PROCEDURES
  46:force_ble.c   **** ------------------------------------------------------------*/
  47:force_ble.c   **** void bleForceInit(void)
  48:force_ble.c   **** {
  28              		.loc 1 48 0
  29              		.cfi_startproc
  30              		@ args = 0, pretend = 0, frame = 0
  31              		@ frame_needed = 0, uses_anonymous_args = 0
  32              		@ link register save eliminated.
  49:force_ble.c   ****     /* No initialization required currently */
  50:force_ble.c   **** }
  33              		.loc 1 50 0
  34              		@ sp needed
  35 0000 7047     		bx	lr
  36              		.cfi_endproc
  37              	.LFE522:
  38              		.size	bleForceInit, .-bleForceInit
  39 0002 C046     		.section	.text.forceSendNotification,"ax",%progbits
  40              		.align	2
  41              		.global	forceSendNotification
  42              		.code	16
  43              		.thumb_func
  44              		.type	forceSendNotification, %function
  45              	forceSendNotification:
  46              	.LFB523:
  51:force_ble.c   **** 
  52:force_ble.c   **** void forceSendNotification(void)
  53:force_ble.c   **** {
  47              		.loc 1 53 0
  48              		.cfi_startproc
  49              		@ args = 0, pretend = 0, frame = 16
  50              		@ frame_needed = 0, uses_anonymous_args = 0
  51 0000 10B5     		push	{r4, lr}
  52              		.cfi_def_cfa_offset 8
  53              		.cfi_offset 4, -8
  54              		.cfi_offset 14, -4
  55 0002 84B0     		sub	sp, sp, #16
  56              		.cfi_def_cfa_offset 24
  54:force_ble.c   ****     cy_stc_ble_conn_handle_t connHandle = getConnection();
  57              		.loc 1 54 0
  58 0004 FFF7FEFF 		bl	getConnection
  59              	.LVL0:
  60 0008 03AB     		add	r3, sp, #12
ARM GAS  C:\Users\seths\AppData\Local\Temp\cc222YM3.s 			page 3


  61 000a 1880     		strh	r0, [r3]
  55:force_ble.c   ****     if( forceNotificationsEnabled )
  62              		.loc 1 55 0
  63 000c 114B     		ldr	r3, .L5
  64 000e 1B78     		ldrb	r3, [r3]
  65 0010 002B     		cmp	r3, #0
  66 0012 1CD0     		beq	.L2
  67              	.LBB2:
  56:force_ble.c   ****     {
  57:force_ble.c   ****         printf("Sending Force Notification\r\n");
  68              		.loc 1 57 0
  69 0014 1048     		ldr	r0, .L5+4
  70 0016 FFF7FEFF 		bl	puts
  71              	.LVL1:
  58:force_ble.c   ****         currentForceData[0]++;
  72              		.loc 1 58 0
  73 001a 0E4C     		ldr	r4, .L5
  74 001c 2379     		ldrb	r3, [r4, #4]
  75 001e 0133     		adds	r3, r3, #1
  76 0020 2371     		strb	r3, [r4, #4]
  59:force_ble.c   ****         cy_stc_ble_gatt_handle_value_pair_t force_notification = {
  77              		.loc 1 59 0
  78 0022 0C22     		movs	r2, #12
  79 0024 0021     		movs	r1, #0
  80 0026 6846     		mov	r0, sp
  81 0028 FFF7FEFF 		bl	memset
  82              	.LVL2:
  83 002c 0434     		adds	r4, r4, #4
  84 002e 0094     		str	r4, [sp]
  85 0030 1423     		movs	r3, #20
  86 0032 6A46     		mov	r2, sp
  87 0034 9380     		strh	r3, [r2, #4]
  88 0036 0733     		adds	r3, r3, #7
  89 0038 1381     		strh	r3, [r2, #8]
  60:force_ble.c   ****             .value.val = currentForceData,
  61:force_ble.c   ****             .value.len = FORCE_NOTIFICATION_LEN,
  62:force_ble.c   ****             .attrHandle = FSR_FORCE_CHAR_HANDLE
  63:force_ble.c   ****         };
  64:force_ble.c   ****         
  65:force_ble.c   ****         cy_en_ble_api_result_t result = Cy_BLE_GATTS_SendNotification( &connHandle, &force_notifica
  90              		.loc 1 65 0
  91 003a 6946     		mov	r1, sp
  92 003c 03A8     		add	r0, sp, #12
  93 003e FFF7FEFF 		bl	Cy_BLE_GATTS_SendNotification
  94              	.LVL3:
  66:force_ble.c   ****         if( CY_BLE_SUCCESS != result )
  95              		.loc 1 66 0
  96 0042 0028     		cmp	r0, #0
  97 0044 03D0     		beq	.L2
  67:force_ble.c   ****         {
  68:force_ble.c   ****            printf("Error sending force characteristic: %d\r\n", result);
  98              		.loc 1 68 0
  99 0046 0100     		movs	r1, r0
 100 0048 0448     		ldr	r0, .L5+8
 101              	.LVL4:
 102 004a FFF7FEFF 		bl	printf
 103              	.LVL5:
ARM GAS  C:\Users\seths\AppData\Local\Temp\cc222YM3.s 			page 4


 104              	.L2:
 105              	.LBE2:
  69:force_ble.c   ****         }
  70:force_ble.c   ****     }
  71:force_ble.c   **** }
 106              		.loc 1 71 0
 107 004e 04B0     		add	sp, sp, #16
 108              		@ sp needed
 109 0050 10BD     		pop	{r4, pc}
 110              	.L6:
 111 0052 C046     		.align	2
 112              	.L5:
 113 0054 00000000 		.word	.LANCHOR0
 114 0058 00000000 		.word	.LC1
 115 005c 1C000000 		.word	.LC3
 116              		.cfi_endproc
 117              	.LFE523:
 118              		.size	forceSendNotification, .-forceSendNotification
 119              		.section	.text.bleForceCallback,"ax",%progbits
 120              		.align	2
 121              		.global	bleForceCallback
 122              		.code	16
 123              		.thumb_func
 124              		.type	bleForceCallback, %function
 125              	bleForceCallback:
 126              	.LFB524:
  72:force_ble.c   **** 
  73:force_ble.c   **** /* 
  74:force_ble.c   ****  * Because this is a custom service this callback is manually called
  75:force_ble.c   ****  * when an event with any relevant handles is received
  76:force_ble.c   ****  */
  77:force_ble.c   **** void bleForceCallback(uint32_t event, void *eventParam)
  78:force_ble.c   **** {
 127              		.loc 1 78 0
 128              		.cfi_startproc
 129              		@ args = 0, pretend = 0, frame = 8
 130              		@ frame_needed = 0, uses_anonymous_args = 0
 131              	.LVL6:
 132 0000 30B5     		push	{r4, r5, lr}
 133              		.cfi_def_cfa_offset 12
 134              		.cfi_offset 4, -12
 135              		.cfi_offset 5, -8
 136              		.cfi_offset 14, -4
 137 0002 83B0     		sub	sp, sp, #12
 138              		.cfi_def_cfa_offset 24
 139 0004 0500     		movs	r5, r0
 140 0006 0C00     		movs	r4, r1
 141              	.LVL7:
  79:force_ble.c   ****     cy_stc_ble_gatts_write_cmd_req_param_t *writeReqParameter = (cy_stc_ble_gatts_write_cmd_req_par
  80:force_ble.c   ****     cy_stc_ble_conn_handle_t connHandle = getConnection();
 142              		.loc 1 80 0
 143 0008 FFF7FEFF 		bl	getConnection
 144              	.LVL8:
 145 000c 01AB     		add	r3, sp, #4
 146 000e 1880     		strh	r0, [r3]
  81:force_ble.c   ****     switch(event)
 147              		.loc 1 81 0
ARM GAS  C:\Users\seths\AppData\Local\Temp\cc222YM3.s 			page 5


 148 0010 0E4B     		ldr	r3, .L12
 149 0012 9D42     		cmp	r5, r3
 150 0014 15D1     		bne	.L8
  82:force_ble.c   ****     {
  83:force_ble.c   ****         case CY_BLE_EVT_GATTS_WRITE_REQ:
  84:force_ble.c   ****             // Check if the write request is for the Force CCCD
  85:force_ble.c   ****             /* Update GATT DB with latest CCCD value */
  86:force_ble.c   ****             if( FSR_FORCE_CONFIG_HANDLE == writeReqParameter->handleValPair.attrHandle )
 151              		.loc 1 86 0
 152 0016 2389     		ldrh	r3, [r4, #8]
 153 0018 1C2B     		cmp	r3, #28
 154 001a 0FD1     		bne	.L10
 155              	.LBB3:
  87:force_ble.c   ****             {
  88:force_ble.c   ****                 if( CY_BLE_SUCCESS != Cy_BLE_GATTS_WriteAttributeValuePeer( &connHandle, &writeReqP
 156              		.loc 1 88 0
 157 001c 2100     		movs	r1, r4
 158 001e 01A8     		add	r0, sp, #4
 159 0020 FFF7FEFF 		bl	Cy_BLE_GATTS_WriteAttributeValuePeer
 160              	.LVL9:
 161 0024 0028     		cmp	r0, #0
 162 0026 03D0     		beq	.L11
  89:force_ble.c   ****                 {
  90:force_ble.c   ****                     printf("Invalid CCCD write");
 163              		.loc 1 90 0
 164 0028 0948     		ldr	r0, .L12+4
 165 002a FFF7FEFF 		bl	printf
 166              	.LVL10:
 167 002e 05E0     		b	.L10
 168              	.L11:
  91:force_ble.c   ****                 } else
  92:force_ble.c   ****                 {
  93:force_ble.c   ****                     forceNotificationsEnabled = ( writeReqParameter->handleValPair.value.val[0] );
 169              		.loc 1 93 0
 170 0030 2368     		ldr	r3, [r4]
 171 0032 1B78     		ldrb	r3, [r3]
 172 0034 5A1E     		subs	r2, r3, #1
 173 0036 9341     		sbcs	r3, r3, r2
 174 0038 064A     		ldr	r2, .L12+8
 175 003a 1370     		strb	r3, [r2]
 176              	.L10:
 177              	.LBE3:
  94:force_ble.c   ****                 }
  95:force_ble.c   ****             }
  96:force_ble.c   ****             
  97:force_ble.c   ****             Cy_BLE_GATTS_WriteRsp(writeReqParameter->connHandle);
 178              		.loc 1 97 0
 179 003c E068     		ldr	r0, [r4, #12]
 180 003e FFF7FEFF 		bl	Cy_BLE_GATTS_WriteRsp
 181              	.LVL11:
 182              	.L8:
  98:force_ble.c   ****         default:
  99:force_ble.c   ****             printf("UNHANDLED EVENT FOR FORCE SERVICE");
 183              		.loc 1 99 0
 184 0042 0548     		ldr	r0, .L12+12
 185 0044 FFF7FEFF 		bl	printf
 186              	.LVL12:
ARM GAS  C:\Users\seths\AppData\Local\Temp\cc222YM3.s 			page 6


 100:force_ble.c   ****             break;
 101:force_ble.c   ****     }
 102:force_ble.c   **** }
 187              		.loc 1 102 0
 188 0048 03B0     		add	sp, sp, #12
 189              		@ sp needed
 190              	.LVL13:
 191              	.LVL14:
 192 004a 30BD     		pop	{r4, r5, pc}
 193              	.L13:
 194              		.align	2
 195              	.L12:
 196 004c 0C500000 		.word	20492
 197 0050 48000000 		.word	.LC6
 198 0054 00000000 		.word	.LANCHOR0
 199 0058 5C000000 		.word	.LC9
 200              		.cfi_endproc
 201              	.LFE524:
 202              		.size	bleForceCallback, .-bleForceCallback
 203              		.global	forceNotificationsEnabled
 204              		.global	currentForceData
 205              		.section	.rodata.str1.4,"aMS",%progbits,1
 206              		.align	2
 207              	.LC1:
 208 0000 53656E64 		.ascii	"Sending Force Notification\015\000"
 208      696E6720 
 208      466F7263 
 208      65204E6F 
 208      74696669 
 209              	.LC3:
 210 001c 4572726F 		.ascii	"Error sending force characteristic: %d\015\012\000"
 210      72207365 
 210      6E64696E 
 210      6720666F 
 210      72636520 
 211 0045 000000   		.space	3
 212              	.LC6:
 213 0048 496E7661 		.ascii	"Invalid CCCD write\000"
 213      6C696420 
 213      43434344 
 213      20777269 
 213      746500
 214 005b 00       		.space	1
 215              	.LC9:
 216 005c 554E4841 		.ascii	"UNHANDLED EVENT FOR FORCE SERVICE\000"
 216      4E444C45 
 216      44204556 
 216      454E5420 
 216      464F5220 
 217              		.bss
 218              		.align	2
 219              		.set	.LANCHOR0,. + 0
 220              		.type	forceNotificationsEnabled, %object
 221              		.size	forceNotificationsEnabled, 1
 222              	forceNotificationsEnabled:
 223 0000 00       		.space	1
 224 0001 000000   		.space	3
ARM GAS  C:\Users\seths\AppData\Local\Temp\cc222YM3.s 			page 7


 225              		.type	currentForceData, %object
 226              		.size	currentForceData, 20
 227              	currentForceData:
 228 0004 00000000 		.space	20
 228      00000000 
 228      00000000 
 228      00000000 
 228      00000000 
 229              		.text
 230              	.Letext0:
 231              		.file 2 "c:\\program files (x86)\\cypress\\psoc creator\\4.2\\psoc creator\\import\\gnu\\arm\\5.4.
 232              		.file 3 "c:\\program files (x86)\\cypress\\psoc creator\\4.2\\psoc creator\\import\\gnu\\arm\\5.4.
 233              		.file 4 "Generated_Source\\PSoC6\\pdl\\drivers/peripheral/device/cy_device.h"
 234              		.file 5 "Generated_Source\\PSoC6\\pdl\\drivers/peripheral/scb/cy_scb_uart.h"
 235              		.file 6 "Generated_Source\\PSoC6\\pdl\\drivers/peripheral/tcpwm/cy_tcpwm_counter.h"
 236              		.file 7 "Generated_Source\\PSoC6\\pdl\\drivers/peripheral/tcpwm/cy_tcpwm_pwm.h"
 237              		.file 8 "Generated_Source\\PSoC6\\pdl\\middleware/ble/cy_ble_stack.h"
 238              		.file 9 "Generated_Source\\PSoC6\\pdl\\middleware/ble/cy_ble_stack_host_main.h"
 239              		.file 10 "Generated_Source\\PSoC6\\pdl\\middleware/ble/cy_ble_stack_gatt.h"
 240              		.file 11 "Generated_Source\\PSoC6\\pdl\\middleware/ble/cy_ble_stack_gatt_server.h"
 241              		.file 12 "Generated_Source\\PSoC6/UART_1.h"
 242              		.file 13 "Generated_Source\\PSoC6/PWM_GREEN_BLINK.h"
 243              		.file 14 "Generated_Source\\PSoC6/PWM_RED_BLINK.h"
 244              		.file 15 "Generated_Source\\PSoC6/Timer.h"
 245              		.file 16 "c:\\program files (x86)\\cypress\\psoc creator\\4.2\\psoc creator\\import\\gnu\\arm\\5.4
 246              		.file 17 "connection_ble.h"
 247              		.file 18 "<built-in>"