ARM GAS  C:\Users\seths\AppData\Local\Temp\cc3sbXhy.s 			page 1


   1              		.syntax unified
   2              		.cpu cortex-m4
   3              		.eabi_attribute 27, 1
   4              		.fpu fpv4-sp-d16
   5              		.eabi_attribute 20, 1
   6              		.eabi_attribute 21, 1
   7              		.eabi_attribute 23, 3
   8              		.eabi_attribute 24, 1
   9              		.eabi_attribute 25, 1
  10              		.eabi_attribute 26, 1
  11              		.eabi_attribute 30, 1
  12              		.eabi_attribute 34, 1
  13              		.eabi_attribute 18, 4
  14              		.thumb
  15              		.syntax unified
  16              		.file	"connection_ble.c"
  17              		.text
  18              	.Ltext0:
  19              		.cfi_sections	.debug_frame
  20              		.section	.text.getConnection,"ax",%progbits
  21              		.align	2
  22              		.global	getConnection
  23              		.thumb
  24              		.thumb_func
  25              		.type	getConnection, %function
  26              	getConnection:
  27              	.LFB620:
  28              		.file 1 "connection_ble.c"
   1:connection_ble.c **** /**
   2:connection_ble.c **** *
   3:connection_ble.c **** * @file
   4:connection_ble.c **** * common_ble.h
   5:connection_ble.c **** *
   6:connection_ble.c **** * @brief
   7:connection_ble.c **** * Interface for controlling common BLE functionality
   8:connection_ble.c **** *
   9:connection_ble.c **** * Author: Schilbe, Seth
  10:connection_ble.c **** * Date: 2019 - 12 - 01 
  11:connection_ble.c **** */
  12:connection_ble.c **** 
  13:connection_ble.c **** /*------------------------------------------------------------
  14:connection_ble.c **** INCLUDES
  15:connection_ble.c **** ------------------------------------------------------------*/
  16:connection_ble.c **** #include "connection_ble.h"
  17:connection_ble.c **** #include <stdio.h>
  18:connection_ble.c **** 
  19:connection_ble.c **** /*------------------------------------------------------------
  20:connection_ble.c **** LITERAL CONSTANTS
  21:connection_ble.c **** ------------------------------------------------------------*/
  22:connection_ble.c **** 
  23:connection_ble.c **** /*------------------------------------------------------------
  24:connection_ble.c **** MACROS
  25:connection_ble.c **** ------------------------------------------------------------*/
  26:connection_ble.c **** 
  27:connection_ble.c **** /*------------------------------------------------------------
  28:connection_ble.c **** TYPES
  29:connection_ble.c **** ------------------------------------------------------------*/
ARM GAS  C:\Users\seths\AppData\Local\Temp\cc3sbXhy.s 			page 2


  30:connection_ble.c **** 
  31:connection_ble.c **** /*------------------------------------------------------------
  32:connection_ble.c **** MEMORY CONSTANTS
  33:connection_ble.c **** ------------------------------------------------------------*/
  34:connection_ble.c **** 
  35:connection_ble.c **** /*------------------------------------------------------------
  36:connection_ble.c **** VARIABLES
  37:connection_ble.c **** ------------------------------------------------------------*/
  38:connection_ble.c **** cy_stc_ble_conn_handle_t connHandle;
  39:connection_ble.c **** 
  40:connection_ble.c **** /*------------------------------------------------------------
  41:connection_ble.c **** PROCEDURES
  42:connection_ble.c **** ------------------------------------------------------------*/
  43:connection_ble.c **** cy_stc_ble_conn_handle_t getConnection(void)
  44:connection_ble.c **** {
  29              		.loc 1 44 0
  30              		.cfi_startproc
  31              		@ args = 0, pretend = 0, frame = 8
  32              		@ frame_needed = 0, uses_anonymous_args = 0
  33              		@ link register save eliminated.
  34 0000 82B0     		sub	sp, sp, #8
  35              		.cfi_def_cfa_offset 8
  45:connection_ble.c ****     return connHandle;
  36              		.loc 1 45 0
  37 0002 074B     		ldr	r3, .L3
  38 0004 1B88     		ldrh	r3, [r3]	@ unaligned
  39 0006 ADF80430 		strh	r3, [sp, #4]	@ unaligned
  40 000a 0020     		movs	r0, #0
  41 000c 9DF80430 		ldrb	r3, [sp, #4]	@ zero_extendqisi2
  42 0010 63F30700 		bfi	r0, r3, #0, #8
  43 0014 9DF80530 		ldrb	r3, [sp, #5]	@ zero_extendqisi2
  44 0018 63F30F20 		bfi	r0, r3, #8, #8
  46:connection_ble.c **** }
  45              		.loc 1 46 0
  46 001c 02B0     		add	sp, sp, #8
  47              		.cfi_def_cfa_offset 0
  48              		@ sp needed
  49 001e 7047     		bx	lr
  50              	.L4:
  51              		.align	2
  52              	.L3:
  53 0020 00000000 		.word	connHandle
  54              		.cfi_endproc
  55              	.LFE620:
  56              		.size	getConnection, .-getConnection
  57              		.section	.text.setConnection,"ax",%progbits
  58              		.align	2
  59              		.global	setConnection
  60              		.thumb
  61              		.thumb_func
  62              		.type	setConnection, %function
  63              	setConnection:
  64              	.LFB621:
  47:connection_ble.c **** 
  48:connection_ble.c **** void setConnection( cy_stc_ble_conn_handle_t newConnHandle )
  49:connection_ble.c **** {
  65              		.loc 1 49 0
ARM GAS  C:\Users\seths\AppData\Local\Temp\cc3sbXhy.s 			page 3


  66              		.cfi_startproc
  67              		@ args = 0, pretend = 0, frame = 8
  68              		@ frame_needed = 0, uses_anonymous_args = 0
  69 0000 00B5     		push	{lr}
  70              		.cfi_def_cfa_offset 4
  71              		.cfi_offset 14, -4
  72 0002 83B0     		sub	sp, sp, #12
  73              		.cfi_def_cfa_offset 16
  74 0004 02AA     		add	r2, sp, #8
  75 0006 22F8040D 		strh	r0, [r2, #-4]!	@ movhi
  50:connection_ble.c ****     connHandle = newConnHandle;
  76              		.loc 1 50 0
  77 000a 054B     		ldr	r3, .L7
  78 000c 1288     		ldrh	r2, [r2]	@ unaligned
  79 000e 1A80     		strh	r2, [r3]	@ unaligned
  51:connection_ble.c ****     printf("Conn Handle: %d, %d\n", connHandle.attId, connHandle.bdHandle );
  80              		.loc 1 51 0
  81 0010 1A78     		ldrb	r2, [r3]	@ zero_extendqisi2
  82 0012 5978     		ldrb	r1, [r3, #1]	@ zero_extendqisi2
  83 0014 0348     		ldr	r0, .L7+4
  84 0016 FFF7FEFF 		bl	printf
  85              	.LVL0:
  52:connection_ble.c **** }
  86              		.loc 1 52 0
  87 001a 03B0     		add	sp, sp, #12
  88              		.cfi_def_cfa_offset 4
  89              		@ sp needed
  90 001c 5DF804FB 		ldr	pc, [sp], #4
  91              	.L8:
  92              		.align	2
  93              	.L7:
  94 0020 00000000 		.word	connHandle
  95 0024 00000000 		.word	.LC0
  96              		.cfi_endproc
  97              	.LFE621:
  98              		.size	setConnection, .-setConnection
  99              		.comm	connHandle,2,4
 100              		.section	.rodata.str1.4,"aMS",%progbits,1
 101              		.align	2
 102              	.LC0:
 103 0000 436F6E6E 		.ascii	"Conn Handle: %d, %d\012\000"
 103      2048616E 
 103      646C653A 
 103      2025642C 
 103      2025640A 
 104              		.text
 105              	.Letext0:
 106              		.file 2 "c:\\program files (x86)\\cypress\\psoc creator\\4.2\\psoc creator\\import\\gnu\\arm\\5.4.
 107              		.file 3 "c:\\program files (x86)\\cypress\\psoc creator\\4.2\\psoc creator\\import\\gnu\\arm\\5.4.
 108              		.file 4 "Generated_Source\\PSoC6\\pdl\\drivers/peripheral/device/cy_device.h"
 109              		.file 5 "Generated_Source\\PSoC6\\pdl\\drivers/peripheral/scb/cy_scb_uart.h"
 110              		.file 6 "Generated_Source\\PSoC6\\pdl\\drivers/peripheral/tcpwm/cy_tcpwm_counter.h"
 111              		.file 7 "Generated_Source\\PSoC6\\pdl\\drivers/peripheral/tcpwm/cy_tcpwm_pwm.h"
 112              		.file 8 "Generated_Source\\PSoC6\\pdl\\middleware/ble/cy_ble_stack_host_main.h"
 113              		.file 9 "Generated_Source\\PSoC6\\pdl\\middleware/ble/cy_ble_stack.h"
 114              		.file 10 "Generated_Source\\PSoC6\\pdl\\middleware/ble/cy_ble_gap.h"
 115              		.file 11 "Generated_Source\\PSoC6\\pdl\\cmsis/include/core_cm4.h"
ARM GAS  C:\Users\seths\AppData\Local\Temp\cc3sbXhy.s 			page 4


 116              		.file 12 "Generated_Source\\PSoC6/UART_1.h"
 117              		.file 13 "Generated_Source\\PSoC6/PWM_GREEN_BLINK.h"
 118              		.file 14 "Generated_Source\\PSoC6/PWM_RED_BLINK.h"
 119              		.file 15 "Generated_Source\\PSoC6/Timer.h"
 120              		.file 16 "c:\\program files (x86)\\cypress\\psoc creator\\4.2\\psoc creator\\import\\gnu\\arm\\5.4