ARM GAS  C:\Users\seths\AppData\Local\Temp\ccBLWISg.s 			page 1


   1              		.syntax unified
   2              		.cpu cortex-m4
   3              		.eabi_attribute 27, 1
   4              		.fpu fpv4-sp-d16
   5              		.eabi_attribute 20, 1
   6              		.eabi_attribute 21, 1
   7              		.eabi_attribute 23, 3
   8              		.eabi_attribute 24, 1
   9              		.eabi_attribute 25, 1
  10              		.eabi_attribute 26, 1
  11              		.eabi_attribute 30, 1
  12              		.eabi_attribute 34, 1
  13              		.eabi_attribute 18, 4
  14              		.thumb
  15              		.syntax unified
  16              		.file	"imu_ble.c"
  17              		.text
  18              	.Ltext0:
  19              		.cfi_sections	.debug_frame
  20              		.section	.text.bleImuInit,"ax",%progbits
  21              		.align	2
  22              		.global	bleImuInit
  23              		.thumb
  24              		.thumb_func
  25              		.type	bleImuInit, %function
  26              	bleImuInit:
  27              	.LFB620:
  28              		.file 1 "imu_ble.c"
   1:imu_ble.c     **** /**
   2:imu_ble.c     **** *
   3:imu_ble.c     **** * @file
   4:imu_ble.c     **** * imu_ble.c
   5:imu_ble.c     **** *
   6:imu_ble.c     **** * @brief
   7:imu_ble.c     **** * Implementation for controlling the IMU service
   8:imu_ble.c     **** *
   9:imu_ble.c     **** * Author: Schilbe, Seth
  10:imu_ble.c     **** * Date: 2019 - 12 - 01 
  11:imu_ble.c     **** */
  12:imu_ble.c     **** 
  13:imu_ble.c     **** /*------------------------------------------------------------
  14:imu_ble.c     **** INCLUDES
  15:imu_ble.c     **** ------------------------------------------------------------*/
  16:imu_ble.c     **** #include "connection_ble.h"
  17:imu_ble.c     **** #include "imu_ble.h"
  18:imu_ble.c     **** #include <stdio.h>
  19:imu_ble.c     **** 
  20:imu_ble.c     **** /*------------------------------------------------------------
  21:imu_ble.c     **** LITERAL CONSTANTS
  22:imu_ble.c     **** ------------------------------------------------------------*/
  23:imu_ble.c     **** #define ACCEL_NOTIFICATION_LEN  (20u)
  24:imu_ble.c     **** #define GYRO_NOTIFICATION_LEN   (20u)
  25:imu_ble.c     **** 
  26:imu_ble.c     **** /*------------------------------------------------------------
  27:imu_ble.c     **** MACROS
  28:imu_ble.c     **** ------------------------------------------------------------*/
  29:imu_ble.c     **** 
ARM GAS  C:\Users\seths\AppData\Local\Temp\ccBLWISg.s 			page 2


  30:imu_ble.c     **** /*------------------------------------------------------------
  31:imu_ble.c     **** TYPES
  32:imu_ble.c     **** ------------------------------------------------------------*/
  33:imu_ble.c     **** 
  34:imu_ble.c     **** /*------------------------------------------------------------
  35:imu_ble.c     **** MEMORY CONSTANTS
  36:imu_ble.c     **** ------------------------------------------------------------*/
  37:imu_ble.c     **** 
  38:imu_ble.c     **** /*------------------------------------------------------------
  39:imu_ble.c     **** VARIABLES
  40:imu_ble.c     **** ------------------------------------------------------------*/
  41:imu_ble.c     **** uint8_t currentAccelData[ACCEL_NOTIFICATION_LEN] = {0};
  42:imu_ble.c     **** uint8_t currentGyroData[GYRO_NOTIFICATION_LEN] = {0};
  43:imu_ble.c     **** 
  44:imu_ble.c     **** bool accelNotificationsEnabled = false;
  45:imu_ble.c     **** bool gyroNotificationsEnabled = false;
  46:imu_ble.c     **** /*------------------------------------------------------------
  47:imu_ble.c     **** PROCEDURES
  48:imu_ble.c     **** ------------------------------------------------------------*/
  49:imu_ble.c     **** void bleImuInit(void)
  50:imu_ble.c     **** {
  29              		.loc 1 50 0
  30              		.cfi_startproc
  31              		@ args = 0, pretend = 0, frame = 0
  32              		@ frame_needed = 0, uses_anonymous_args = 0
  33              		@ link register save eliminated.
  34 0000 7047     		bx	lr
  35              		.cfi_endproc
  36              	.LFE620:
  37              		.size	bleImuInit, .-bleImuInit
  38 0002 00BF     		.section	.text.imuSendNotification,"ax",%progbits
  39              		.align	2
  40              		.global	imuSendNotification
  41              		.thumb
  42              		.thumb_func
  43              		.type	imuSendNotification, %function
  44              	imuSendNotification:
  45              	.LFB621:
  51:imu_ble.c     ****     /* No initialization required currently */
  52:imu_ble.c     **** }
  53:imu_ble.c     **** 
  54:imu_ble.c     **** /* 
  55:imu_ble.c     ****  * Because this is a custom service this callback is manually called
  56:imu_ble.c     ****  * when an event with any relevant handles is received
  57:imu_ble.c     ****  */
  58:imu_ble.c     **** void imuSendNotification()
  59:imu_ble.c     **** {
  46              		.loc 1 59 0
  47              		.cfi_startproc
  48              		@ args = 0, pretend = 0, frame = 16
  49              		@ frame_needed = 0, uses_anonymous_args = 0
  50              		.loc 1 59 0
  51 0000 00B5     		push	{lr}
  52              		.cfi_def_cfa_offset 4
  53              		.cfi_offset 14, -4
  54 0002 85B0     		sub	sp, sp, #20
  55              		.cfi_def_cfa_offset 24
ARM GAS  C:\Users\seths\AppData\Local\Temp\ccBLWISg.s 			page 3


  60:imu_ble.c     ****     cy_stc_ble_conn_handle_t connHandle = getConnection();
  56              		.loc 1 60 0
  57 0004 FFF7FEFF 		bl	getConnection
  58              	.LVL0:
  59 0008 ADF80C00 		strh	r0, [sp, #12]	@ movhi
  61:imu_ble.c     ****     if( accelNotificationsEnabled )
  60              		.loc 1 61 0
  61 000c 1F4B     		ldr	r3, .L8
  62 000e 1B78     		ldrb	r3, [r3]	@ zero_extendqisi2
  63 0010 D3B1     		cbz	r3, .L3
  64              	.LBB2:
  62:imu_ble.c     ****     {
  63:imu_ble.c     ****         printf("Sending Accel Notification\r\n");
  65              		.loc 1 63 0
  66 0012 1F48     		ldr	r0, .L8+4
  67 0014 FFF7FEFF 		bl	puts
  68              	.LVL1:
  64:imu_ble.c     ****         currentAccelData[0]++;
  69              		.loc 1 64 0
  70 0018 1C4B     		ldr	r3, .L8
  71 001a 1A79     		ldrb	r2, [r3, #4]	@ zero_extendqisi2
  72 001c 0132     		adds	r2, r2, #1
  73 001e 03F8042F 		strb	r2, [r3, #4]!
  65:imu_ble.c     ****         cy_stc_ble_gatt_handle_value_pair_t accel_notification = {
  74              		.loc 1 65 0
  75 0022 0022     		movs	r2, #0
  76 0024 0192     		str	r2, [sp, #4]
  77 0026 0292     		str	r2, [sp, #8]
  78 0028 0093     		str	r3, [sp]
  79 002a 1423     		movs	r3, #20
  80 002c ADF80430 		strh	r3, [sp, #4]	@ movhi
  81 0030 1223     		movs	r3, #18
  82 0032 ADF80830 		strh	r3, [sp, #8]	@ movhi
  66:imu_ble.c     ****             .value.val = currentAccelData,
  67:imu_ble.c     ****             .value.len = ACCEL_NOTIFICATION_LEN,
  68:imu_ble.c     ****             .attrHandle = IMU_ACCEL_CHAR_HANDLE
  69:imu_ble.c     ****         };
  70:imu_ble.c     ****         
  71:imu_ble.c     ****         cy_en_ble_api_result_t result = Cy_BLE_GATTS_SendNotification( &connHandle, &accel_notifica
  83              		.loc 1 71 0
  84 0036 6946     		mov	r1, sp
  85 0038 03A8     		add	r0, sp, #12
  86 003a FFF7FEFF 		bl	Cy_BLE_GATTS_SendNotification
  87              	.LVL2:
  72:imu_ble.c     ****         if( CY_BLE_SUCCESS != result )
  88              		.loc 1 72 0
  89 003e 0146     		mov	r1, r0
  90 0040 10B1     		cbz	r0, .L3
  73:imu_ble.c     ****         {
  74:imu_ble.c     ****            printf("Error sending acceleration characteristic: %d\r\n", result);
  91              		.loc 1 74 0
  92 0042 1448     		ldr	r0, .L8+8
  93              	.LVL3:
  94 0044 FFF7FEFF 		bl	printf
  95              	.LVL4:
  96              	.L3:
  97              	.LBE2:
ARM GAS  C:\Users\seths\AppData\Local\Temp\ccBLWISg.s 			page 4


  75:imu_ble.c     ****         }
  76:imu_ble.c     ****     }
  77:imu_ble.c     ****     
  78:imu_ble.c     ****     if( gyroNotificationsEnabled )
  98              		.loc 1 78 0
  99 0048 104B     		ldr	r3, .L8
 100 004a 1B7E     		ldrb	r3, [r3, #24]	@ zero_extendqisi2
 101 004c D3B1     		cbz	r3, .L2
 102              	.LBB3:
  79:imu_ble.c     ****     {
  80:imu_ble.c     ****         printf("Sending Gyro Notification\r\n");
 103              		.loc 1 80 0
 104 004e 1248     		ldr	r0, .L8+12
 105 0050 FFF7FEFF 		bl	puts
 106              	.LVL5:
  81:imu_ble.c     ****         currentGyroData[0]++;
 107              		.loc 1 81 0
 108 0054 0D4B     		ldr	r3, .L8
 109 0056 1A7F     		ldrb	r2, [r3, #28]	@ zero_extendqisi2
 110 0058 0132     		adds	r2, r2, #1
 111 005a 03F81C2F 		strb	r2, [r3, #28]!
  82:imu_ble.c     ****         cy_stc_ble_gatt_handle_value_pair_t gyro_notification = {
 112              		.loc 1 82 0
 113 005e 0022     		movs	r2, #0
 114 0060 0192     		str	r2, [sp, #4]
 115 0062 0292     		str	r2, [sp, #8]
 116 0064 0093     		str	r3, [sp]
 117 0066 1423     		movs	r3, #20
 118 0068 ADF80430 		strh	r3, [sp, #4]	@ movhi
 119 006c 1623     		movs	r3, #22
 120 006e ADF80830 		strh	r3, [sp, #8]	@ movhi
  83:imu_ble.c     ****             .value.val = currentGyroData,
  84:imu_ble.c     ****             .value.len = GYRO_NOTIFICATION_LEN,
  85:imu_ble.c     ****             .attrHandle = IMU_GYRO_CHAR_HANDLE
  86:imu_ble.c     ****         };
  87:imu_ble.c     ****         
  88:imu_ble.c     ****         cy_en_ble_api_result_t result = Cy_BLE_GATTS_SendNotification( &connHandle, &gyro_notificat
 121              		.loc 1 88 0
 122 0072 6946     		mov	r1, sp
 123 0074 03A8     		add	r0, sp, #12
 124 0076 FFF7FEFF 		bl	Cy_BLE_GATTS_SendNotification
 125              	.LVL6:
  89:imu_ble.c     ****         if( CY_BLE_SUCCESS != result )
 126              		.loc 1 89 0
 127 007a 0146     		mov	r1, r0
 128 007c 10B1     		cbz	r0, .L2
  90:imu_ble.c     ****         {
  91:imu_ble.c     ****            printf("Error sending gyroscope characteristic: %d\r\n", result);
 129              		.loc 1 91 0
 130 007e 0748     		ldr	r0, .L8+16
 131              	.LVL7:
 132 0080 FFF7FEFF 		bl	printf
 133              	.LVL8:
 134              	.L2:
 135              	.LBE3:
  92:imu_ble.c     ****         }
  93:imu_ble.c     ****     }
ARM GAS  C:\Users\seths\AppData\Local\Temp\ccBLWISg.s 			page 5


  94:imu_ble.c     **** }
 136              		.loc 1 94 0
 137 0084 05B0     		add	sp, sp, #20
 138              		.cfi_def_cfa_offset 4
 139              		@ sp needed
 140 0086 5DF804FB 		ldr	pc, [sp], #4
 141              	.L9:
 142 008a 00BF     		.align	2
 143              	.L8:
 144 008c 00000000 		.word	.LANCHOR0
 145 0090 00000000 		.word	.LC0
 146 0094 1C000000 		.word	.LC1
 147 0098 4C000000 		.word	.LC2
 148 009c 68000000 		.word	.LC3
 149              		.cfi_endproc
 150              	.LFE621:
 151              		.size	imuSendNotification, .-imuSendNotification
 152              		.section	.text.bleImuCallback,"ax",%progbits
 153              		.align	2
 154              		.global	bleImuCallback
 155              		.thumb
 156              		.thumb_func
 157              		.type	bleImuCallback, %function
 158              	bleImuCallback:
 159              	.LFB622:
  95:imu_ble.c     **** 
  96:imu_ble.c     **** void bleImuCallback(uint32_t event, void *eventParam)
  97:imu_ble.c     **** {
 160              		.loc 1 97 0
 161              		.cfi_startproc
 162              		@ args = 0, pretend = 0, frame = 8
 163              		@ frame_needed = 0, uses_anonymous_args = 0
 164              	.LVL9:
 165 0000 30B5     		push	{r4, r5, lr}
 166              		.cfi_def_cfa_offset 12
 167              		.cfi_offset 4, -12
 168              		.cfi_offset 5, -8
 169              		.cfi_offset 14, -4
 170 0002 83B0     		sub	sp, sp, #12
 171              		.cfi_def_cfa_offset 24
 172 0004 0546     		mov	r5, r0
 173 0006 0C46     		mov	r4, r1
 174              	.LVL10:
  98:imu_ble.c     ****     cy_stc_ble_gatts_write_cmd_req_param_t *writeReqParameter = (cy_stc_ble_gatts_write_cmd_req_par
  99:imu_ble.c     ****     cy_stc_ble_conn_handle_t connHandle = getConnection();
 175              		.loc 1 99 0
 176 0008 FFF7FEFF 		bl	getConnection
 177              	.LVL11:
 178 000c ADF80400 		strh	r0, [sp, #4]	@ movhi
 100:imu_ble.c     ****     cy_en_ble_gatt_err_code_t result;
 101:imu_ble.c     ****     
 102:imu_ble.c     ****     switch(event)
 179              		.loc 1 102 0
 180 0010 45F20C03 		movw	r3, #20492
 181 0014 9D42     		cmp	r5, r3
 182 0016 2BD1     		bne	.L18
 103:imu_ble.c     ****     {
ARM GAS  C:\Users\seths\AppData\Local\Temp\ccBLWISg.s 			page 6


 104:imu_ble.c     ****         case CY_BLE_EVT_GATTS_WRITE_REQ:
 105:imu_ble.c     ****             // Check if the write request is for the Acceleration CCCD
 106:imu_ble.c     ****             /* Update GATT DB with latest CCCD value */
 107:imu_ble.c     ****             if( IMU_ACCEL_CONFIG_HANDLE == writeReqParameter->handleValPair.attrHandle )
 183              		.loc 1 107 0
 184 0018 2389     		ldrh	r3, [r4, #8]
 185 001a 142B     		cmp	r3, #20
 186 001c 11D1     		bne	.L13
 108:imu_ble.c     ****             {
 109:imu_ble.c     ****                 if( CY_BLE_GATT_ERR_NONE != ( result = Cy_BLE_GATTS_WriteAttributeValuePeer( &connH
 187              		.loc 1 109 0
 188 001e 2146     		mov	r1, r4
 189 0020 01A8     		add	r0, sp, #4
 190 0022 FFF7FEFF 		bl	Cy_BLE_GATTS_WriteAttributeValuePeer
 191              	.LVL12:
 192 0026 0146     		mov	r1, r0
 193 0028 18B1     		cbz	r0, .L14
 110:imu_ble.c     ****                 {
 111:imu_ble.c     ****                     printf("Invalid CCCD write to gyro, error: %d\r\n", result);
 194              		.loc 1 111 0
 195 002a 1448     		ldr	r0, .L20
 196              	.LVL13:
 197 002c FFF7FEFF 		bl	printf
 198              	.LVL14:
 199 0030 1AE0     		b	.L15
 200              	.LVL15:
 201              	.L14:
 112:imu_ble.c     ****                 } else
 113:imu_ble.c     ****                 {
 114:imu_ble.c     ****                     accelNotificationsEnabled = ( writeReqParameter->handleValPair.value.val[0] );
 202              		.loc 1 114 0
 203 0032 2368     		ldr	r3, [r4]
 204 0034 1B78     		ldrb	r3, [r3]	@ zero_extendqisi2
 205 0036 0033     		adds	r3, r3, #0
 206 0038 18BF     		it	ne
 207 003a 0123     		movne	r3, #1
 208 003c 104A     		ldr	r2, .L20+4
 209 003e 1370     		strb	r3, [r2]
 210 0040 12E0     		b	.L15
 211              	.LVL16:
 212              	.L13:
 115:imu_ble.c     ****                 }
 116:imu_ble.c     ****             } else if( IMU_GYRO_CONFIG_HANDLE == writeReqParameter->handleValPair.attrHandle )
 213              		.loc 1 116 0
 214 0042 182B     		cmp	r3, #24
 215 0044 10D1     		bne	.L15
 117:imu_ble.c     ****             {
 118:imu_ble.c     ****                 if( CY_BLE_GATT_ERR_NONE != ( result = Cy_BLE_GATTS_WriteAttributeValuePeer( &connH
 216              		.loc 1 118 0
 217 0046 2146     		mov	r1, r4
 218 0048 01A8     		add	r0, sp, #4
 219 004a FFF7FEFF 		bl	Cy_BLE_GATTS_WriteAttributeValuePeer
 220              	.LVL17:
 221 004e 0146     		mov	r1, r0
 222 0050 18B1     		cbz	r0, .L16
 119:imu_ble.c     ****                 {
 120:imu_ble.c     ****                     printf("Invalid CCCD write to gyro, error: %d\r\n", result);
ARM GAS  C:\Users\seths\AppData\Local\Temp\ccBLWISg.s 			page 7


 223              		.loc 1 120 0
 224 0052 0A48     		ldr	r0, .L20
 225              	.LVL18:
 226 0054 FFF7FEFF 		bl	printf
 227              	.LVL19:
 228 0058 06E0     		b	.L15
 229              	.LVL20:
 230              	.L16:
 121:imu_ble.c     ****                 } else
 122:imu_ble.c     ****                 {
 123:imu_ble.c     ****                     gyroNotificationsEnabled = ( writeReqParameter->handleValPair.value.val[0] );
 231              		.loc 1 123 0
 232 005a 2368     		ldr	r3, [r4]
 233 005c 1B78     		ldrb	r3, [r3]	@ zero_extendqisi2
 234 005e 0033     		adds	r3, r3, #0
 235 0060 18BF     		it	ne
 236 0062 0123     		movne	r3, #1
 237 0064 064A     		ldr	r2, .L20+4
 238 0066 1376     		strb	r3, [r2, #24]
 239              	.LVL21:
 240              	.L15:
 124:imu_ble.c     ****                 }
 125:imu_ble.c     ****             }
 126:imu_ble.c     ****             
 127:imu_ble.c     ****             Cy_BLE_GATTS_WriteRsp(writeReqParameter->connHandle);
 241              		.loc 1 127 0
 242 0068 E068     		ldr	r0, [r4, #12]
 243 006a FFF7FEFF 		bl	Cy_BLE_GATTS_WriteRsp
 244              	.LVL22:
 128:imu_ble.c     ****             break;
 245              		.loc 1 128 0
 246 006e 02E0     		b	.L10
 247              	.L18:
 129:imu_ble.c     ****         default:
 130:imu_ble.c     ****             printf("UNHANDLED EVENT FOR IMU SERVICE");
 248              		.loc 1 130 0
 249 0070 0448     		ldr	r0, .L20+8
 250 0072 FFF7FEFF 		bl	printf
 251              	.LVL23:
 252              	.L10:
 131:imu_ble.c     ****             break;
 132:imu_ble.c     ****     }
 133:imu_ble.c     **** }
 253              		.loc 1 133 0
 254 0076 03B0     		add	sp, sp, #12
 255              		.cfi_def_cfa_offset 12
 256              		@ sp needed
 257 0078 30BD     		pop	{r4, r5, pc}
 258              	.LVL24:
 259              	.L21:
 260 007a 00BF     		.align	2
 261              	.L20:
 262 007c 98000000 		.word	.LC4
 263 0080 00000000 		.word	.LANCHOR0
 264 0084 C0000000 		.word	.LC5
 265              		.cfi_endproc
 266              	.LFE622:
ARM GAS  C:\Users\seths\AppData\Local\Temp\ccBLWISg.s 			page 8


 267              		.size	bleImuCallback, .-bleImuCallback
 268              		.global	gyroNotificationsEnabled
 269              		.global	accelNotificationsEnabled
 270              		.global	currentGyroData
 271              		.global	currentAccelData
 272              		.section	.rodata.str1.4,"aMS",%progbits,1
 273              		.align	2
 274              	.LC0:
 275 0000 53656E64 		.ascii	"Sending Accel Notification\015\000"
 275      696E6720 
 275      41636365 
 275      6C204E6F 
 275      74696669 
 276              	.LC1:
 277 001c 4572726F 		.ascii	"Error sending acceleration characteristic: %d\015\012"
 277      72207365 
 277      6E64696E 
 277      67206163 
 277      63656C65 
 278 004b 00       		.ascii	"\000"
 279              	.LC2:
 280 004c 53656E64 		.ascii	"Sending Gyro Notification\015\000"
 280      696E6720 
 280      4779726F 
 280      204E6F74 
 280      69666963 
 281 0067 00       		.space	1
 282              	.LC3:
 283 0068 4572726F 		.ascii	"Error sending gyroscope characteristic: %d\015\012\000"
 283      72207365 
 283      6E64696E 
 283      67206779 
 283      726F7363 
 284 0095 000000   		.space	3
 285              	.LC4:
 286 0098 496E7661 		.ascii	"Invalid CCCD write to gyro, error: %d\015\012\000"
 286      6C696420 
 286      43434344 
 286      20777269 
 286      74652074 
 287              	.LC5:
 288 00c0 554E4841 		.ascii	"UNHANDLED EVENT FOR IMU SERVICE\000"
 288      4E444C45 
 288      44204556 
 288      454E5420 
 288      464F5220 
 289              		.bss
 290              		.align	2
 291              		.set	.LANCHOR0,. + 0
 292              		.type	accelNotificationsEnabled, %object
 293              		.size	accelNotificationsEnabled, 1
 294              	accelNotificationsEnabled:
 295 0000 00       		.space	1
 296 0001 000000   		.space	3
 297              		.type	currentAccelData, %object
 298              		.size	currentAccelData, 20
 299              	currentAccelData:
ARM GAS  C:\Users\seths\AppData\Local\Temp\ccBLWISg.s 			page 9


 300 0004 00000000 		.space	20
 300      00000000 
 300      00000000 
 300      00000000 
 300      00000000 
 301              		.type	gyroNotificationsEnabled, %object
 302              		.size	gyroNotificationsEnabled, 1
 303              	gyroNotificationsEnabled:
 304 0018 00       		.space	1
 305 0019 000000   		.space	3
 306              		.type	currentGyroData, %object
 307              		.size	currentGyroData, 20
 308              	currentGyroData:
 309 001c 00000000 		.space	20
 309      00000000 
 309      00000000 
 309      00000000 
 309      00000000 
 310              		.text
 311              	.Letext0:
 312              		.file 2 "c:\\program files (x86)\\cypress\\psoc creator\\4.2\\psoc creator\\import\\gnu\\arm\\5.4.
 313              		.file 3 "c:\\program files (x86)\\cypress\\psoc creator\\4.2\\psoc creator\\import\\gnu\\arm\\5.4.
 314              		.file 4 "Generated_Source\\PSoC6\\pdl\\drivers/peripheral/device/cy_device.h"
 315              		.file 5 "Generated_Source\\PSoC6\\pdl\\drivers/peripheral/scb/cy_scb_uart.h"
 316              		.file 6 "Generated_Source\\PSoC6\\pdl\\drivers/peripheral/tcpwm/cy_tcpwm_counter.h"
 317              		.file 7 "Generated_Source\\PSoC6\\pdl\\drivers/peripheral/tcpwm/cy_tcpwm_pwm.h"
 318              		.file 8 "Generated_Source\\PSoC6\\pdl\\middleware/ble/cy_ble_stack.h"
 319              		.file 9 "Generated_Source\\PSoC6\\pdl\\middleware/ble/cy_ble_stack_host_main.h"
 320              		.file 10 "Generated_Source\\PSoC6\\pdl\\middleware/ble/cy_ble_stack_gatt.h"
 321              		.file 11 "Generated_Source\\PSoC6\\pdl\\middleware/ble/cy_ble_gap.h"
 322              		.file 12 "Generated_Source\\PSoC6\\pdl\\middleware/ble/cy_ble_stack_gatt_server.h"
 323              		.file 13 "Generated_Source\\PSoC6\\pdl\\cmsis/include/core_cm4.h"
 324              		.file 14 "Generated_Source\\PSoC6/UART_1.h"
 325              		.file 15 "Generated_Source\\PSoC6/PWM_GREEN_BLINK.h"
 326              		.file 16 "Generated_Source\\PSoC6/PWM_RED_BLINK.h"
 327              		.file 17 "Generated_Source\\PSoC6/Timer.h"
 328              		.file 18 "Generated_Source\\PSoC6\\pdl\\middleware/ble/cy_ble_gatt.h"
 329              		.file 19 "c:\\program files (x86)\\cypress\\psoc creator\\4.2\\psoc creator\\import\\gnu\\arm\\5.4
 330              		.file 20 "connection_ble.h"
 331              		.file 21 "<built-in>"